---
triple:          'arm64-apple-darwin'
binary-path:     '/Users/nithinkumar/Documents/NIT Trichy/sem 6/compiler lab/lab7/output/construct_dag'
relocations:
  - { offsetInCU: 0x3F, offset: 0x3F, size: 0x8, addend: 0x0, symName: _index_global, symObjAddr: 0x5B278, symBinAddr: 0x100014000, symSize: 0x0 }
  - { offsetInCU: 0x5B, offset: 0x5B, size: 0x8, addend: 0x0, symName: _n, symObjAddr: 0x5B27C, symBinAddr: 0x100014004, symSize: 0x0 }
  - { offsetInCU: 0x70, offset: 0x70, size: 0x8, addend: 0x0, symName: _tac, symObjAddr: 0x5B280, symBinAddr: 0x100014008, symSize: 0x0 }
  - { offsetInCU: 0xD9, offset: 0xD9, size: 0x8, addend: 0x0, symName: _visited_left_most_child, symObjAddr: 0x5B410, symBinAddr: 0x100014198, symSize: 0x0 }
  - { offsetInCU: 0xF5, offset: 0xF5, size: 0x8, addend: 0x0, symName: _rstack, symObjAddr: 0x5B418, symBinAddr: 0x1000141A0, symSize: 0x0 }
  - { offsetInCU: 0x775E, offset: 0x775E, size: 0x8, addend: 0x0, symName: __ZNSt3__113__fill_n_trueB8ue170006INS_6vectorIbNS_9allocatorIbEEEEEEvNS_14__bit_iteratorIT_Lb0EXLi0EEEENS6_9size_typeE, symObjAddr: 0x5AB8, symBinAddr: 0x100007610, symSize: 0x160 }
  - { offsetInCU: 0x7823, offset: 0x7823, size: 0x8, addend: 0x0, symName: __ZNSt3__114__fill_n_falseB8ue170006INS_6vectorIbNS_9allocatorIbEEEEEEvNS_14__bit_iteratorIT_Lb0EXLi0EEEENS6_9size_typeE, symObjAddr: 0x5C4C, symBinAddr: 0x1000077A4, symSize: 0x15C }
  - { offsetInCU: 0x81AA, offset: 0x81AA, size: 0x8, addend: 0x0, symName: __ZNSt3__124__put_character_sequenceB8ue170006IcNS_11char_traitsIcEEEERNS_13basic_ostreamIT_T0_EES7_PKS4_m, symObjAddr: 0x8EF8, symBinAddr: 0x10000AA50, symSize: 0x1F4 }
  - { offsetInCU: 0xA76C, offset: 0xA76C, size: 0x8, addend: 0x0, symName: __ZNSt3__1lsB8ue170006INS_11char_traitsIcEEEERNS_13basic_ostreamIcT_EES6_PKc, symObjAddr: 0x12DC, symBinAddr: 0x100002E34, symSize: 0x48 }
  - { offsetInCU: 0xA7B2, offset: 0xA7B2, size: 0x8, addend: 0x0, symName: __ZNSt3__1lsB8ue170006INS_11char_traitsIcEEEERNS_13basic_ostreamIcT_EES6_c, symObjAddr: 0x1324, symBinAddr: 0x100002E7C, symSize: 0x34 }
  - { offsetInCU: 0xA7F8, offset: 0xA7F8, size: 0x8, addend: 0x0, symName: __ZNSt3__13maxB8ue170006IiEERKT_S3_S3_, symObjAddr: 0x150C, symBinAddr: 0x100003064, symSize: 0x2C }
  - { offsetInCU: 0xA83B, offset: 0xA83B, size: 0x8, addend: 0x0, symName: __ZNSt3__17getlineB8ue170006IcNS_11char_traitsIcEENS_9allocatorIcEEEERNS_13basic_istreamIT_T0_EES9_RNS_12basic_stringIS6_S7_T1_EE, symObjAddr: 0x1F00, symBinAddr: 0x100003A58, symSize: 0x5C }
  - { offsetInCU: 0xA893, offset: 0xA893, size: 0x8, addend: 0x0, symName: __ZNSt3__14fillB8ue170006INS_14__bit_iteratorINS_6vectorIbNS_9allocatorIbEEEELb0ELm0EEEiEEvT_S7_RKT0_, symObjAddr: 0x202C, symBinAddr: 0x100003B84, symSize: 0x64 }
  - { offsetInCU: 0xA8EB, offset: 0xA8EB, size: 0x8, addend: 0x0, symName: __ZNSt3__1neB8ue170006ERKNS_16__deque_iteratorIiPiRiPS1_lLl1024EEES6_, symObjAddr: 0x26BC, symBinAddr: 0x100004214, symSize: 0x34 }
  - { offsetInCU: 0xA928, offset: 0xA928, size: 0x8, addend: 0x0, symName: __ZNSt3__1eqB8ue170006ERKNS_16__deque_iteratorIiPiRiPS1_lLl1024EEES6_, symObjAddr: 0x2A08, symBinAddr: 0x100004560, symSize: 0x30 }
  - { offsetInCU: 0xA965, offset: 0xA965, size: 0x8, addend: 0x0, symName: __ZNSt3__112__to_addressB8ue170006IiEEPT_S2_, symObjAddr: 0x3098, symBinAddr: 0x100004BF0, symSize: 0x14 }
  - { offsetInCU: 0xA99A, offset: 0xA99A, size: 0x8, addend: 0x0, symName: __ZNSt3__130__libcpp_is_constant_evaluatedB8ue170006Ev, symObjAddr: 0x3234, symBinAddr: 0x100004D8C, symSize: 0xC }
  - { offsetInCU: 0xA9B7, offset: 0xA9B7, size: 0x8, addend: 0x0, symName: __ZNSt3__119__libcpp_deallocateB8ue170006EPvmm, symObjAddr: 0x3240, symBinAddr: 0x100004D98, symSize: 0x30 }
  - { offsetInCU: 0xA9FF, offset: 0xA9FF, size: 0x8, addend: 0x0, symName: __ZNSt3__127__do_deallocate_handle_sizeB8ue170006IJEEEvPvmDpT_, symObjAddr: 0x3270, symBinAddr: 0x100004DC8, symSize: 0x28 }
  - { offsetInCU: 0xAA3D, offset: 0xAA3D, size: 0x8, addend: 0x0, symName: __ZNSt3__124__libcpp_operator_deleteB8ue170006IJPvEEEvDpT_, symObjAddr: 0x3298, symBinAddr: 0x100004DF0, symSize: 0x24 }
  - { offsetInCU: 0xAA72, offset: 0xAA72, size: 0x8, addend: 0x0, symName: __ZNSt3__112__to_addressB8ue170006IPiEEPT_S3_, symObjAddr: 0x3524, symBinAddr: 0x10000507C, symSize: 0x14 }
  - { offsetInCU: 0xAAA7, offset: 0xAAA7, size: 0x8, addend: 0x0, symName: __ZNSt3__1neB8ue170006ERKNS_16__deque_iteratorIP8dag_nodePS2_RS2_PS3_lLl512EEES8_, symObjAddr: 0x3C20, symBinAddr: 0x100005778, symSize: 0x34 }
  - { offsetInCU: 0xAAE4, offset: 0xAAE4, size: 0x8, addend: 0x0, symName: __ZNSt3__1eqB8ue170006ERKNS_16__deque_iteratorIP8dag_nodePS2_RS2_PS3_lLl512EEES8_, symObjAddr: 0x3F58, symBinAddr: 0x100005AB0, symSize: 0x30 }
  - { offsetInCU: 0xAB21, offset: 0xAB21, size: 0x8, addend: 0x0, symName: __ZNSt3__112__to_addressB8ue170006IP8dag_nodeEEPT_S4_, symObjAddr: 0x45D4, symBinAddr: 0x10000612C, symSize: 0x14 }
  - { offsetInCU: 0xAB56, offset: 0xAB56, size: 0x8, addend: 0x0, symName: __ZNSt3__112__to_addressB8ue170006IPP8dag_nodeEEPT_S5_, symObjAddr: 0x49D8, symBinAddr: 0x100006530, symSize: 0x14 }
  - { offsetInCU: 0xAB8B, offset: 0xAB8B, size: 0x8, addend: 0x0, symName: __ZNSt3__119__allocate_at_leastB8ue170006INS_9allocatorImEEEENS_19__allocation_resultINS_16allocator_traitsIT_E7pointerEEERS5_m, symObjAddr: 0x55C8, symBinAddr: 0x100007120, symSize: 0x40 }
  - { offsetInCU: 0xABF3, offset: 0xABF3, size: 0x8, addend: 0x0, symName: __ZNSt3__114__construct_atB8ue170006ImJEPmEEPT_S3_DpOT0_, symObjAddr: 0x567C, symBinAddr: 0x1000071D4, symSize: 0x20 }
  - { offsetInCU: 0xAC4F, offset: 0xAC4F, size: 0x8, addend: 0x0, symName: __ZNSt3__112__to_addressB8ue170006ImEEPT_S2_, symObjAddr: 0x569C, symBinAddr: 0x1000071F4, symSize: 0x14 }
  - { offsetInCU: 0xAE86, offset: 0xAE86, size: 0x8, addend: 0x0, symName: __ZNSt3__120__throw_length_errorB8ue170006EPKc, symObjAddr: 0x577C, symBinAddr: 0x1000072D4, symSize: 0x64 }
  - { offsetInCU: 0xAEB0, offset: 0xAEB0, size: 0x8, addend: 0x0, symName: __ZNSt3__117__libcpp_allocateB8ue170006Emm, symObjAddr: 0x5918, symBinAddr: 0x100007470, symSize: 0x28 }
  - { offsetInCU: 0xAEED, offset: 0xAEED, size: 0x8, addend: 0x0, symName: __ZNSt3__121__libcpp_operator_newB8ue170006IJmEEEPvDpT_, symObjAddr: 0x5940, symBinAddr: 0x100007498, symSize: 0x24 }
  - { offsetInCU: 0xAF26, offset: 0xAF26, size: 0x8, addend: 0x0, symName: __ZNSt3__16fill_nB8ue170006INS_6vectorIbNS_9allocatorIbEEEEEEvNS_14__bit_iteratorIT_Lb0EXLi0EEEENS6_9size_typeEb, symObjAddr: 0x59C0, symBinAddr: 0x100007518, symSize: 0x94 }
  - { offsetInCU: 0xAF78, offset: 0xAF78, size: 0x8, addend: 0x0, symName: __ZNSt3__13minB8ue170006ImEERKT_S3_S3_, symObjAddr: 0x5DA8, symBinAddr: 0x100007900, symSize: 0x2C }
  - { offsetInCU: 0xAFBB, offset: 0xAFBB, size: 0x8, addend: 0x0, symName: __ZNSt3__16fill_nB8ue170006IPmmmEET_S2_T0_RKT1_, symObjAddr: 0x5DD4, symBinAddr: 0x10000792C, symSize: 0x44 }
  - { offsetInCU: 0xB01E, offset: 0xB01E, size: 0x8, addend: 0x0, symName: __ZNSt3__13minB8ue170006ImNS_6__lessIvvEEEERKT_S5_S5_T0_, symObjAddr: 0x5E18, symBinAddr: 0x100007970, symSize: 0x54 }
  - { offsetInCU: 0xB0EE, offset: 0xB0EE, size: 0x8, addend: 0x0, symName: __ZNSt3__18__fill_nB8ue170006IPmmmEET_S2_T0_RKT1_, symObjAddr: 0x5EA0, symBinAddr: 0x1000079F8, symSize: 0x64 }
  - { offsetInCU: 0xB151, offset: 0xB151, size: 0x8, addend: 0x0, symName: __ZNSt3__121__convert_to_integralB8ue170006Em, symObjAddr: 0x5F04, symBinAddr: 0x100007A5C, symSize: 0x14 }
  - { offsetInCU: 0xB17D, offset: 0xB17D, size: 0x8, addend: 0x0, symName: __ZNSt3__16fill_nB8ue170006IPmmiEET_S2_T0_RKT1_, symObjAddr: 0x5F48, symBinAddr: 0x100007AA0, symSize: 0x44 }
  - { offsetInCU: 0xB1E0, offset: 0xB1E0, size: 0x8, addend: 0x0, symName: __ZNSt3__18__fill_nB8ue170006IPmmiEET_S2_T0_RKT1_, symObjAddr: 0x5F8C, symBinAddr: 0x100007AE4, symSize: 0x64 }
  - { offsetInCU: 0xB243, offset: 0xB243, size: 0x8, addend: 0x0, symName: __ZNSt3__13maxB8ue170006ImEERKT_S3_S3_, symObjAddr: 0x6F4C, symBinAddr: 0x100008AA4, symSize: 0x2C }
  - { offsetInCU: 0xB70F, offset: 0xB70F, size: 0x8, addend: 0x0, symName: __ZNSt3__14swapB8ue170006IPPP8dag_nodeEEvRT_S6_, symObjAddr: 0x757C, symBinAddr: 0x1000090D4, symSize: 0x3C }
  - { offsetInCU: 0xB760, offset: 0xB760, size: 0x8, addend: 0x0, symName: __ZNSt3__14moveB8ue170006IPPP8dag_nodeS4_EET0_T_S6_S5_, symObjAddr: 0x7660, symBinAddr: 0x1000091B8, symSize: 0x40 }
  - { offsetInCU: 0xB7D6, offset: 0xB7D6, size: 0x8, addend: 0x0, symName: __ZNSt3__16__moveB8ue170006INS_17_ClassicAlgPolicyEPPP8dag_nodeS5_S5_EENS_4pairIT0_T2_EES7_T1_S8_, symObjAddr: 0x7768, symBinAddr: 0x1000092C0, symSize: 0x44 }
  - { offsetInCU: 0xB842, offset: 0xB842, size: 0x8, addend: 0x0, symName: __ZNSt3__123__dispatch_copy_or_moveB8ue170006INS_17_ClassicAlgPolicyENS_11__move_loopIS1_EENS_14__move_trivialEPPP8dag_nodeS8_S8_EENS_4pairIT2_T4_EESA_T3_SB_, symObjAddr: 0x77AC, symBinAddr: 0x100009304, symSize: 0x44 }
  - { offsetInCU: 0xB8C0, offset: 0xB8C0, size: 0x8, addend: 0x0, symName: __ZNSt3__121__unwrap_and_dispatchB8ue170006INS_10__overloadINS_11__move_loopINS_17_ClassicAlgPolicyEEENS_14__move_trivialEEEPPP8dag_nodeSA_SA_Li0EEENS_4pairIT0_T2_EESC_T1_SD_, symObjAddr: 0x77F0, symBinAddr: 0x100009348, symSize: 0xB4 }
  - { offsetInCU: 0xB94E, offset: 0xB94E, size: 0x8, addend: 0x0, symName: __ZNSt3__114__unwrap_rangeB8ue170006IPPP8dag_nodeS4_EENS_4pairIT0_S6_EET_S8_, symObjAddr: 0x78A4, symBinAddr: 0x1000093FC, symSize: 0x60 }
  - { offsetInCU: 0xBAC9, offset: 0xBAC9, size: 0x8, addend: 0x0, symName: __ZNSt3__113__unwrap_iterB8ue170006IPPP8dag_nodeNS_18__unwrap_iter_implIS4_Lb1EEELi0EEEDTclsrT0_8__unwrapclsr3stdE7declvalIT_EEEES8_, symObjAddr: 0x794C, symBinAddr: 0x1000094A4, symSize: 0x24 }
  - { offsetInCU: 0xBB0D, offset: 0xBB0D, size: 0x8, addend: 0x0, symName: __ZNSt3__19make_pairB8ue170006IPPP8dag_nodeS4_EENS_4pairINS_18__unwrap_ref_decayIT_E4typeENS6_IT0_E4typeEEEOS7_OSA_, symObjAddr: 0x7970, symBinAddr: 0x1000094C8, symSize: 0x38 }
  - { offsetInCU: 0xBB5C, offset: 0xBB5C, size: 0x8, addend: 0x0, symName: __ZNSt3__114__rewrap_rangeB8ue170006IPPP8dag_nodeS4_EET_S5_T0_, symObjAddr: 0x79A8, symBinAddr: 0x100009500, symSize: 0x2C }
  - { offsetInCU: 0xBBA8, offset: 0xBBA8, size: 0x8, addend: 0x0, symName: __ZNSt3__113__rewrap_iterB8ue170006IPPP8dag_nodeS4_NS_18__unwrap_iter_implIS4_Lb1EEEEET_S7_T0_, symObjAddr: 0x79D4, symBinAddr: 0x10000952C, symSize: 0x50 }
  - { offsetInCU: 0xBBFD, offset: 0xBBFD, size: 0x8, addend: 0x0, symName: __ZNSt3__119__copy_trivial_implB8ue170006IPP8dag_nodeS3_EENS_4pairIPT_PT0_EES6_S6_S8_, symObjAddr: 0x7A24, symBinAddr: 0x10000957C, symSize: 0x80 }
  - { offsetInCU: 0xBC65, offset: 0xBC65, size: 0x8, addend: 0x0, symName: __ZNSt3__119__constexpr_memmoveB8ue170006IPP8dag_nodeS3_Li0EEEPT_S5_PT0_NS_15__element_countE, symObjAddr: 0x7AA4, symBinAddr: 0x1000095FC, symSize: 0xA0 }
  - { offsetInCU: 0xBCD3, offset: 0xBCD3, size: 0x8, addend: 0x0, symName: __ZNSt3__19make_pairB8ue170006IRPPP8dag_nodeS4_EENS_4pairINS_18__unwrap_ref_decayIT_E4typeENS7_IT0_E4typeEEEOS8_OSB_, symObjAddr: 0x7B44, symBinAddr: 0x10000969C, symSize: 0x38 }
  - { offsetInCU: 0xBD75, offset: 0xBD75, size: 0x8, addend: 0x0, symName: __ZNSt3__18distanceB8ue170006INS_13move_iteratorIPPP8dag_nodeEEEENS_15iterator_traitsIT_E15difference_typeES8_S8_, symObjAddr: 0x7D44, symBinAddr: 0x10000989C, symSize: 0x3C }
  - { offsetInCU: 0xBDB8, offset: 0xBDB8, size: 0x8, addend: 0x0, symName: __ZNSt3__110__distanceB8ue170006INS_13move_iteratorIPPP8dag_nodeEEEENS_15iterator_traitsIT_E15difference_typeES8_S8_NS_26random_access_iterator_tagE, symObjAddr: 0x7F48, symBinAddr: 0x100009AA0, symSize: 0x30 }
  - { offsetInCU: 0xBE05, offset: 0xBE05, size: 0x8, addend: 0x0, symName: __ZNSt3__1miB8ue170006IPPP8dag_nodeS4_EENS_13move_iteratorIT_E15difference_typeERKS7_RKNS5_IT0_EE, symObjAddr: 0x7F78, symBinAddr: 0x100009AD0, symSize: 0x48 }
  - { offsetInCU: 0xBE54, offset: 0xBE54, size: 0x8, addend: 0x0, symName: __ZNSt3__113move_backwardB8ue170006IPPP8dag_nodeS4_EET0_T_S6_S5_, symObjAddr: 0x80DC, symBinAddr: 0x100009C34, symSize: 0x40 }
  - { offsetInCU: 0xBEAE, offset: 0xBEAE, size: 0x8, addend: 0x0, symName: __ZNSt3__115__move_backwardB8ue170006INS_17_ClassicAlgPolicyEPPP8dag_nodeS5_S5_EENS_4pairIT0_T2_EES7_T1_S8_, symObjAddr: 0x811C, symBinAddr: 0x100009C74, symSize: 0x44 }
  - { offsetInCU: 0xBF1A, offset: 0xBF1A, size: 0x8, addend: 0x0, symName: __ZNSt3__123__dispatch_copy_or_moveB8ue170006INS_17_ClassicAlgPolicyENS_20__move_backward_loopIS1_EENS_23__move_backward_trivialEPPP8dag_nodeS8_S8_EENS_4pairIT2_T4_EESA_T3_SB_, symObjAddr: 0x8160, symBinAddr: 0x100009CB8, symSize: 0x44 }
  - { offsetInCU: 0xBF98, offset: 0xBF98, size: 0x8, addend: 0x0, symName: __ZNSt3__121__unwrap_and_dispatchB8ue170006INS_10__overloadINS_20__move_backward_loopINS_17_ClassicAlgPolicyEEENS_23__move_backward_trivialEEEPPP8dag_nodeSA_SA_Li0EEENS_4pairIT0_T2_EESC_T1_SD_, symObjAddr: 0x81A4, symBinAddr: 0x100009CFC, symSize: 0xB4 }
  - { offsetInCU: 0xC0A8, offset: 0xC0A8, size: 0x8, addend: 0x0, symName: __ZNSt3__128__copy_backward_trivial_implB8ue170006IPP8dag_nodeS3_EENS_4pairIPT_PT0_EES6_S6_S8_, symObjAddr: 0x82A0, symBinAddr: 0x100009DF8, symSize: 0x90 }
  - { offsetInCU: 0xC110, offset: 0xC110, size: 0x8, addend: 0x0, symName: __ZNSt3__19make_pairB8ue170006IRPPP8dag_nodeS5_EENS_4pairINS_18__unwrap_ref_decayIT_E4typeENS7_IT0_E4typeEEEOS8_OSB_, symObjAddr: 0x8330, symBinAddr: 0x100009E88, symSize: 0x38 }
  - { offsetInCU: 0xC15F, offset: 0xC15F, size: 0x8, addend: 0x0, symName: __ZNSt3__13maxB8ue170006ImNS_6__lessIvvEEEERKT_S5_S5_T0_, symObjAddr: 0x8368, symBinAddr: 0x100009EC0, symSize: 0x54 }
  - { offsetInCU: 0xC1B9, offset: 0xC1B9, size: 0x8, addend: 0x0, symName: __ZNSt3__119__allocate_at_leastB8ue170006INS_9allocatorIPP8dag_nodeEEEENS_19__allocation_resultINS_16allocator_traitsIT_E7pointerEEERS8_m, symObjAddr: 0x84CC, symBinAddr: 0x10000A024, symSize: 0x40 }
  - { offsetInCU: 0xC1FC, offset: 0xC1FC, size: 0x8, addend: 0x0, symName: __ZNSt3__116__pad_and_outputB8ue170006IcNS_11char_traitsIcEEEENS_19ostreambuf_iteratorIT_T0_EES6_PKS4_S8_S8_RNS_8ios_baseES4_, symObjAddr: 0x9150, symBinAddr: 0x10000ACA8, symSize: 0x248 }
  - { offsetInCU: 0xC2CB, offset: 0xC2CB, size: 0x8, addend: 0x0, symName: __ZNSt3__112__to_addressB8ue170006IKcEEPT_S3_, symObjAddr: 0x96C0, symBinAddr: 0x10000B218, symSize: 0x14 }
  - { offsetInCU: 0xC333, offset: 0xC333, size: 0x8, addend: 0x0, symName: __ZNSt3__19use_facetB8ue170006INS_5ctypeIcEEEERKT_RKNS_6localeE, symObjAddr: 0x9998, symBinAddr: 0x10000B4F0, symSize: 0x2C }
  - { offsetInCU: 0xC800, offset: 0xC800, size: 0x8, addend: 0x0, symName: __ZNSt3__118__constexpr_strlenB8ue170006EPKc, symObjAddr: 0x9A30, symBinAddr: 0x10000B588, symSize: 0x24 }
  - { offsetInCU: 0xC82C, offset: 0xC82C, size: 0x8, addend: 0x0, symName: __ZNSt3__13maxB8ue170006IiNS_6__lessIvvEEEERKT_S5_S5_T0_, symObjAddr: 0x9A54, symBinAddr: 0x10000B5AC, symSize: 0x54 }
  - { offsetInCU: 0xCD0F, offset: 0xCD0F, size: 0x8, addend: 0x0, symName: __ZNSt3__14swapB8ue170006IPPiEEvRT_S4_, symObjAddr: 0xB128, symBinAddr: 0x10000CC80, symSize: 0x3C }
  - { offsetInCU: 0xCD60, offset: 0xCD60, size: 0x8, addend: 0x0, symName: __ZNSt3__14moveB8ue170006IPPiS2_EET0_T_S4_S3_, symObjAddr: 0xB20C, symBinAddr: 0x10000CD64, symSize: 0x40 }
  - { offsetInCU: 0xCDBA, offset: 0xCDBA, size: 0x8, addend: 0x0, symName: __ZNSt3__16__moveB8ue170006INS_17_ClassicAlgPolicyEPPiS3_S3_EENS_4pairIT0_T2_EES5_T1_S6_, symObjAddr: 0xB314, symBinAddr: 0x10000CE6C, symSize: 0x44 }
  - { offsetInCU: 0xCE26, offset: 0xCE26, size: 0x8, addend: 0x0, symName: __ZNSt3__123__dispatch_copy_or_moveB8ue170006INS_17_ClassicAlgPolicyENS_11__move_loopIS1_EENS_14__move_trivialEPPiS6_S6_EENS_4pairIT2_T4_EES8_T3_S9_, symObjAddr: 0xB358, symBinAddr: 0x10000CEB0, symSize: 0x44 }
  - { offsetInCU: 0xCEA4, offset: 0xCEA4, size: 0x8, addend: 0x0, symName: __ZNSt3__121__unwrap_and_dispatchB8ue170006INS_10__overloadINS_11__move_loopINS_17_ClassicAlgPolicyEEENS_14__move_trivialEEEPPiS8_S8_Li0EEENS_4pairIT0_T2_EESA_T1_SB_, symObjAddr: 0xB39C, symBinAddr: 0x10000CEF4, symSize: 0xB4 }
  - { offsetInCU: 0xCF32, offset: 0xCF32, size: 0x8, addend: 0x0, symName: __ZNSt3__114__unwrap_rangeB8ue170006IPPiS2_EENS_4pairIT0_S4_EET_S6_, symObjAddr: 0xB450, symBinAddr: 0x10000CFA8, symSize: 0x60 }
  - { offsetInCU: 0xD02B, offset: 0xD02B, size: 0x8, addend: 0x0, symName: __ZNSt3__113__unwrap_iterB8ue170006IPPiNS_18__unwrap_iter_implIS2_Lb1EEELi0EEEDTclsrT0_8__unwrapclsr3stdE7declvalIT_EEEES6_, symObjAddr: 0xB4F8, symBinAddr: 0x10000D050, symSize: 0x24 }
  - { offsetInCU: 0xD06F, offset: 0xD06F, size: 0x8, addend: 0x0, symName: __ZNSt3__19make_pairB8ue170006IPPiS2_EENS_4pairINS_18__unwrap_ref_decayIT_E4typeENS4_IT0_E4typeEEEOS5_OS8_, symObjAddr: 0xB51C, symBinAddr: 0x10000D074, symSize: 0x38 }
  - { offsetInCU: 0xD0BE, offset: 0xD0BE, size: 0x8, addend: 0x0, symName: __ZNSt3__114__rewrap_rangeB8ue170006IPPiS2_EET_S3_T0_, symObjAddr: 0xB554, symBinAddr: 0x10000D0AC, symSize: 0x2C }
  - { offsetInCU: 0xD10A, offset: 0xD10A, size: 0x8, addend: 0x0, symName: __ZNSt3__113__rewrap_iterB8ue170006IPPiS2_NS_18__unwrap_iter_implIS2_Lb1EEEEET_S5_T0_, symObjAddr: 0xB580, symBinAddr: 0x10000D0D8, symSize: 0x50 }
  - { offsetInCU: 0xD15F, offset: 0xD15F, size: 0x8, addend: 0x0, symName: __ZNSt3__119__copy_trivial_implB8ue170006IPiS1_EENS_4pairIPT_PT0_EES4_S4_S6_, symObjAddr: 0xB5D0, symBinAddr: 0x10000D128, symSize: 0x80 }
  - { offsetInCU: 0xD1C7, offset: 0xD1C7, size: 0x8, addend: 0x0, symName: __ZNSt3__119__constexpr_memmoveB8ue170006IPiS1_Li0EEEPT_S3_PT0_NS_15__element_countE, symObjAddr: 0xB650, symBinAddr: 0x10000D1A8, symSize: 0xA0 }
  - { offsetInCU: 0xD235, offset: 0xD235, size: 0x8, addend: 0x0, symName: __ZNSt3__19make_pairB8ue170006IRPPiS2_EENS_4pairINS_18__unwrap_ref_decayIT_E4typeENS5_IT0_E4typeEEEOS6_OS9_, symObjAddr: 0xB6F0, symBinAddr: 0x10000D248, symSize: 0x38 }
  - { offsetInCU: 0xD2D7, offset: 0xD2D7, size: 0x8, addend: 0x0, symName: __ZNSt3__18distanceB8ue170006INS_13move_iteratorIPPiEEEENS_15iterator_traitsIT_E15difference_typeES6_S6_, symObjAddr: 0xB8F0, symBinAddr: 0x10000D448, symSize: 0x3C }
  - { offsetInCU: 0xD31A, offset: 0xD31A, size: 0x8, addend: 0x0, symName: __ZNSt3__110__distanceB8ue170006INS_13move_iteratorIPPiEEEENS_15iterator_traitsIT_E15difference_typeES6_S6_NS_26random_access_iterator_tagE, symObjAddr: 0xBAF4, symBinAddr: 0x10000D64C, symSize: 0x30 }
  - { offsetInCU: 0xD367, offset: 0xD367, size: 0x8, addend: 0x0, symName: __ZNSt3__1miB8ue170006IPPiS2_EENS_13move_iteratorIT_E15difference_typeERKS5_RKNS3_IT0_EE, symObjAddr: 0xBB24, symBinAddr: 0x10000D67C, symSize: 0x48 }
  - { offsetInCU: 0xD3B6, offset: 0xD3B6, size: 0x8, addend: 0x0, symName: __ZNSt3__113move_backwardB8ue170006IPPiS2_EET0_T_S4_S3_, symObjAddr: 0xBC88, symBinAddr: 0x10000D7E0, symSize: 0x40 }
  - { offsetInCU: 0xD410, offset: 0xD410, size: 0x8, addend: 0x0, symName: __ZNSt3__115__move_backwardB8ue170006INS_17_ClassicAlgPolicyEPPiS3_S3_EENS_4pairIT0_T2_EES5_T1_S6_, symObjAddr: 0xBCC8, symBinAddr: 0x10000D820, symSize: 0x44 }
  - { offsetInCU: 0xD47C, offset: 0xD47C, size: 0x8, addend: 0x0, symName: __ZNSt3__123__dispatch_copy_or_moveB8ue170006INS_17_ClassicAlgPolicyENS_20__move_backward_loopIS1_EENS_23__move_backward_trivialEPPiS6_S6_EENS_4pairIT2_T4_EES8_T3_S9_, symObjAddr: 0xBD0C, symBinAddr: 0x10000D864, symSize: 0x44 }
  - { offsetInCU: 0xD4FA, offset: 0xD4FA, size: 0x8, addend: 0x0, symName: __ZNSt3__121__unwrap_and_dispatchB8ue170006INS_10__overloadINS_20__move_backward_loopINS_17_ClassicAlgPolicyEEENS_23__move_backward_trivialEEEPPiS8_S8_Li0EEENS_4pairIT0_T2_EESA_T1_SB_, symObjAddr: 0xBD50, symBinAddr: 0x10000D8A8, symSize: 0xB4 }
  - { offsetInCU: 0xD588, offset: 0xD588, size: 0x8, addend: 0x0, symName: __ZNSt3__128__copy_backward_trivial_implB8ue170006IPiS1_EENS_4pairIPT_PT0_EES4_S4_S6_, symObjAddr: 0xBE4C, symBinAddr: 0x10000D9A4, symSize: 0x90 }
  - { offsetInCU: 0xD5F0, offset: 0xD5F0, size: 0x8, addend: 0x0, symName: __ZNSt3__19make_pairB8ue170006IRPPiS3_EENS_4pairINS_18__unwrap_ref_decayIT_E4typeENS5_IT0_E4typeEEEOS6_OS9_, symObjAddr: 0xBEDC, symBinAddr: 0x10000DA34, symSize: 0x38 }
  - { offsetInCU: 0xD63F, offset: 0xD63F, size: 0x8, addend: 0x0, symName: __ZNSt3__119__allocate_at_leastB8ue170006INS_9allocatorIPiEEEENS_19__allocation_resultINS_16allocator_traitsIT_E7pointerEEERS6_m, symObjAddr: 0xC024, symBinAddr: 0x10000DB7C, symSize: 0x40 }
  - { offsetInCU: 0xD682, offset: 0xD682, size: 0x8, addend: 0x0, symName: __ZNSt3__17getlineB8ue170006IcNS_11char_traitsIcEENS_9allocatorIcEEEERNS_13basic_istreamIT_T0_EES9_RNS_12basic_stringIS6_S7_T1_EES6_, symObjAddr: 0xCAF0, symBinAddr: 0x10000E648, symSize: 0x238 }
  - { offsetInCU: 0xDCFE, offset: 0xDCFE, size: 0x8, addend: 0x0, symName: __ZNSt3__16__fillB8ue170006INS_14__bit_iteratorINS_6vectorIbNS_9allocatorIbEEEELb0ELm0EEEiEEvT_S7_RKT0_NS_26random_access_iterator_tagE, symObjAddr: 0xD230, symBinAddr: 0x10000ED88, symSize: 0x64 }
  - { offsetInCU: 0xDD60, offset: 0xDD60, size: 0x8, addend: 0x0, symName: __ZNSt3__16fill_nB8ue170006INS_14__bit_iteratorINS_6vectorIbNS_9allocatorIbEEEELb0ELm0EEEliEET_S7_T0_RKT1_, symObjAddr: 0xD294, symBinAddr: 0x10000EDEC, symSize: 0x68 }
  - { offsetInCU: 0xDDC4, offset: 0xDDC4, size: 0x8, addend: 0x0, symName: __ZNSt3__1miB8ue170006ERKNS_14__bit_iteratorINS_6vectorIbNS_9allocatorIbEEEELb0ELm0EEES7_, symObjAddr: 0xD2FC, symBinAddr: 0x10000EE54, symSize: 0x48 }
  - { offsetInCU: 0xDE01, offset: 0xDE01, size: 0x8, addend: 0x0, symName: __ZNSt3__18__fill_nB8ue170006INS_14__bit_iteratorINS_6vectorIbNS_9allocatorIbEEEELb0ELm0EEEliEET_S7_T0_RKT1_, symObjAddr: 0xD344, symBinAddr: 0x10000EE9C, symSize: 0xA8 }
  - { offsetInCU: 0xDE65, offset: 0xDE65, size: 0x8, addend: 0x0, symName: __ZNSt3__121__convert_to_integralB8ue170006El, symObjAddr: 0xD3EC, symBinAddr: 0x10000EF44, symSize: 0x14 }
  - { offsetInCU: 0xE19F, offset: 0xE19F, size: 0x8, addend: 0x0, symName: __ZSt28__throw_bad_array_new_lengthB8ue170006v, symObjAddr: 0x58E4, symBinAddr: 0x10000743C, symSize: 0x34 }
  - { offsetInCU: 0xE423, offset: 0xE423, size: 0x8, addend: 0x0, symName: _tstack, symObjAddr: 0x5B448, symBinAddr: 0x1000141D0, symSize: 0x0 }
  - { offsetInCU: 0x10F94, offset: 0x10F94, size: 0x8, addend: 0x0, symName: __ZNSt3__15stackIiNS_5dequeIiNS_9allocatorIiEEEEEC1B8ue170006Ev, symObjAddr: 0x0, symBinAddr: 0x100001B58, symSize: 0x2C }
  - { offsetInCU: 0x10FBE, offset: 0x10FBE, size: 0x8, addend: 0x0, symName: __ZNSt3__15stackIiNS_5dequeIiNS_9allocatorIiEEEEED1Ev, symObjAddr: 0x2C, symBinAddr: 0x100001B84, symSize: 0x2C }
  - { offsetInCU: 0x10FE9, offset: 0x10FE9, size: 0x8, addend: 0x0, symName: __Z12insert_labelP10label_listc, symObjAddr: 0x58, symBinAddr: 0x100001BB0, symSize: 0xB0 }
  - { offsetInCU: 0x1103F, offset: 0x1103F, size: 0x8, addend: 0x0, symName: __Z15create_dag_nodecc, symObjAddr: 0x108, symBinAddr: 0x100001C60, symSize: 0x84 }
  - { offsetInCU: 0x11087, offset: 0x11087, size: 0x8, addend: 0x0, symName: __Z13search_labelsP8dag_nodec, symObjAddr: 0x18C, symBinAddr: 0x100001CE4, symSize: 0xC4 }
  - { offsetInCU: 0x110CF, offset: 0x110CF, size: 0x8, addend: 0x0, symName: __Z5checkP8dag_nodeS0_cc, symObjAddr: 0x250, symBinAddr: 0x100001DA8, symSize: 0x80 }
  - { offsetInCU: 0x11125, offset: 0x11125, size: 0x8, addend: 0x0, symName: __Z16search_for_valueP9root_listc, symObjAddr: 0x2D0, symBinAddr: 0x100001E28, symSize: 0x2E4 }
  - { offsetInCU: 0x11212, offset: 0x11212, size: 0x8, addend: 0x0, symName: __ZNSt3__15queueIP8dag_nodeNS_5dequeIS2_NS_9allocatorIS2_EEEEEC1B8ue170006Ev, symObjAddr: 0x5B4, symBinAddr: 0x10000210C, symSize: 0x2C }
  - { offsetInCU: 0x1123C, offset: 0x1123C, size: 0x8, addend: 0x0, symName: __ZNSt3__16vectorIbNS_9allocatorIbEEEC1EmRKb, symObjAddr: 0x5E0, symBinAddr: 0x100002138, symSize: 0x3C }
  - { offsetInCU: 0x11286, offset: 0x11286, size: 0x8, addend: 0x0, symName: __ZNSt3__15queueIP8dag_nodeNS_5dequeIS2_NS_9allocatorIS2_EEEEE4pushB8ue170006ERKS2_, symObjAddr: 0x61C, symBinAddr: 0x100002174, symSize: 0x2C }
  - { offsetInCU: 0x112BB, offset: 0x112BB, size: 0x8, addend: 0x0, symName: __ZNKSt3__15queueIP8dag_nodeNS_5dequeIS2_NS_9allocatorIS2_EEEEE5emptyB8ue170006Ev, symObjAddr: 0x648, symBinAddr: 0x1000021A0, symSize: 0x28 }
  - { offsetInCU: 0x112E1, offset: 0x112E1, size: 0x8, addend: 0x0, symName: __ZNSt3__15queueIP8dag_nodeNS_5dequeIS2_NS_9allocatorIS2_EEEEE5frontB8ue170006Ev, symObjAddr: 0x670, symBinAddr: 0x1000021C8, symSize: 0x24 }
  - { offsetInCU: 0x11307, offset: 0x11307, size: 0x8, addend: 0x0, symName: __ZNSt3__15queueIP8dag_nodeNS_5dequeIS2_NS_9allocatorIS2_EEEEE3popB8ue170006Ev, symObjAddr: 0x694, symBinAddr: 0x1000021EC, symSize: 0x24 }
  - { offsetInCU: 0x1132D, offset: 0x1132D, size: 0x8, addend: 0x0, symName: __ZNSt3__16vectorIbNS_9allocatorIbEEEixB8ue170006Em, symObjAddr: 0x6B8, symBinAddr: 0x100002210, symSize: 0x3C }
  - { offsetInCU: 0x11362, offset: 0x11362, size: 0x8, addend: 0x0, symName: __ZNSt3__115__bit_referenceINS_6vectorIbNS_9allocatorIbEEEELb1EEaSB8ue170006Eb, symObjAddr: 0x6F4, symBinAddr: 0x10000224C, symSize: 0x6C }
  - { offsetInCU: 0x11396, offset: 0x11396, size: 0x8, addend: 0x0, symName: __ZNKSt3__115__bit_referenceINS_6vectorIbNS_9allocatorIbEEEELb1EEcvbB8ue170006Ev, symObjAddr: 0x760, symBinAddr: 0x1000022B8, symSize: 0x2C }
  - { offsetInCU: 0x113BC, offset: 0x113BC, size: 0x8, addend: 0x0, symName: __ZNSt3__16vectorIbNS_9allocatorIbEEED1B8ue170006Ev, symObjAddr: 0x78C, symBinAddr: 0x1000022E4, symSize: 0x2C }
  - { offsetInCU: 0x113E6, offset: 0x113E6, size: 0x8, addend: 0x0, symName: __ZNSt3__15queueIP8dag_nodeNS_5dequeIS2_NS_9allocatorIS2_EEEEED1Ev, symObjAddr: 0x7C4, symBinAddr: 0x10000231C, symSize: 0x2C }
  - { offsetInCU: 0x11412, offset: 0x11412, size: 0x8, addend: 0x0, symName: __Z18search_for_similarP9root_listccc, symObjAddr: 0x7F0, symBinAddr: 0x100002348, symSize: 0x314 }
  - { offsetInCU: 0x114ED, offset: 0x114ED, size: 0x8, addend: 0x0, symName: __Z10add_to_endP9root_listP8dag_node, symObjAddr: 0xB04, symBinAddr: 0x10000265C, symSize: 0xB0 }
  - { offsetInCU: 0x11543, offset: 0x11543, size: 0x8, addend: 0x0, symName: __Z10create_dagP9root_listi, symObjAddr: 0xBB4, symBinAddr: 0x10000270C, symSize: 0x46C }
  - { offsetInCU: 0x11628, offset: 0x11628, size: 0x8, addend: 0x0, symName: __Z7inorderP8dag_nodeRNSt3__16vectorIbNS1_9allocatorIbEEEE, symObjAddr: 0x1020, symBinAddr: 0x100002B78, symSize: 0x2BC }
  - { offsetInCU: 0x1167E, offset: 0x1167E, size: 0x8, addend: 0x0, symName: __Z13assign_labelsP8dag_nodebRNSt3__16vectorIbNS1_9allocatorIbEEEE, symObjAddr: 0x1358, symBinAddr: 0x100002EB0, symSize: 0x1B4 }
  - { offsetInCU: 0x116CA, offset: 0x116CA, size: 0x8, addend: 0x0, symName: __Z14swap_registersv, symObjAddr: 0x1538, symBinAddr: 0x100003090, symSize: 0x80 }
  - { offsetInCU: 0x11704, offset: 0x11704, size: 0x8, addend: 0x0, symName: __ZNSt3__15stackIiNS_5dequeIiNS_9allocatorIiEEEEE3topB8ue170006Ev, symObjAddr: 0x15B8, symBinAddr: 0x100003110, symSize: 0x24 }
  - { offsetInCU: 0x1172A, offset: 0x1172A, size: 0x8, addend: 0x0, symName: __ZNSt3__15stackIiNS_5dequeIiNS_9allocatorIiEEEEE3popB8ue170006Ev, symObjAddr: 0x15DC, symBinAddr: 0x100003134, symSize: 0x24 }
  - { offsetInCU: 0x11750, offset: 0x11750, size: 0x8, addend: 0x0, symName: __ZNSt3__15stackIiNS_5dequeIiNS_9allocatorIiEEEEE4pushB8ue170006ERKi, symObjAddr: 0x1600, symBinAddr: 0x100003158, symSize: 0x2C }
  - { offsetInCU: 0x11784, offset: 0x11784, size: 0x8, addend: 0x0, symName: __Z8gen_codeP8dag_nodeb, symObjAddr: 0x162C, symBinAddr: 0x100003184, symSize: 0x4A4 }
  - { offsetInCU: 0x11841, offset: 0x11841, size: 0x8, addend: 0x0, symName: __ZNKSt3__15stackIiNS_5dequeIiNS_9allocatorIiEEEEE4sizeB8ue170006Ev, symObjAddr: 0x1AD0, symBinAddr: 0x100003628, symSize: 0x24 }
  - { offsetInCU: 0x11867, offset: 0x11867, size: 0x8, addend: 0x0, symName: _main, symObjAddr: 0x1AF4, symBinAddr: 0x10000364C, symSize: 0x3E0 }
  - { offsetInCU: 0x1192B, offset: 0x1192B, size: 0x8, addend: 0x0, symName: __ZNSt3__112basic_stringIcNS_11char_traitsIcEENS_9allocatorIcEEEC1B8ue170006Ev, symObjAddr: 0x1ED4, symBinAddr: 0x100003A2C, symSize: 0x2C }
  - { offsetInCU: 0x11955, offset: 0x11955, size: 0x8, addend: 0x0, symName: __ZNKSt3__19basic_iosIcNS_11char_traitsIcEEEcvPvB8ue170006Ev, symObjAddr: 0x1F5C, symBinAddr: 0x100003AB4, symSize: 0x4C }
  - { offsetInCU: 0x1197B, offset: 0x1197B, size: 0x8, addend: 0x0, symName: __ZNKSt3__112basic_stringIcNS_11char_traitsIcEENS_9allocatorIcEEE4sizeB8ue170006Ev, symObjAddr: 0x1FA8, symBinAddr: 0x100003B00, symSize: 0x54 }
  - { offsetInCU: 0x119A1, offset: 0x119A1, size: 0x8, addend: 0x0, symName: __ZNSt3__112basic_stringIcNS_11char_traitsIcEENS_9allocatorIcEEEixB8ue170006Em, symObjAddr: 0x1FFC, symBinAddr: 0x100003B54, symSize: 0x30 }
  - { offsetInCU: 0x119D6, offset: 0x119D6, size: 0x8, addend: 0x0, symName: __ZNSt3__16vectorIbNS_9allocatorIbEEE5beginB8ue170006Ev, symObjAddr: 0x2090, symBinAddr: 0x100003BE8, symSize: 0x30 }
  - { offsetInCU: 0x119FC, offset: 0x119FC, size: 0x8, addend: 0x0, symName: __ZNSt3__16vectorIbNS_9allocatorIbEEE3endB8ue170006Ev, symObjAddr: 0x20C0, symBinAddr: 0x100003C18, symSize: 0x30 }
  - { offsetInCU: 0x11A22, offset: 0x11A22, size: 0x8, addend: 0x0, symName: __ZNSt3__15stackIiNS_5dequeIiNS_9allocatorIiEEEEED2Ev, symObjAddr: 0x20F0, symBinAddr: 0x100003C48, symSize: 0x2C }
  - { offsetInCU: 0x11A4E, offset: 0x11A4E, size: 0x8, addend: 0x0, symName: __ZNSt3__15dequeIiNS_9allocatorIiEEED1B8ue170006Ev, symObjAddr: 0x211C, symBinAddr: 0x100003C74, symSize: 0x2C }
  - { offsetInCU: 0x11A78, offset: 0x11A78, size: 0x8, addend: 0x0, symName: __ZNSt3__15dequeIiNS_9allocatorIiEEED2B8ue170006Ev, symObjAddr: 0x2148, symBinAddr: 0x100003CA0, symSize: 0xA4 }
  - { offsetInCU: 0x11ACE, offset: 0x11ACE, size: 0x8, addend: 0x0, symName: __ZNSt3__15dequeIiNS_9allocatorIiEEE5clearEv, symObjAddr: 0x21EC, symBinAddr: 0x100003D44, symSize: 0x1A8 }
  - { offsetInCU: 0x11B31, offset: 0x11B31, size: 0x8, addend: 0x0, symName: __ZNKSt3__15dequeIiNS_9allocatorIiEEE17__annotate_deleteB8ue170006Ev, symObjAddr: 0x2394, symBinAddr: 0x100003EEC, symSize: 0xE8 }
  - { offsetInCU: 0x11B74, offset: 0x11B74, size: 0x8, addend: 0x0, symName: __ZNSt3__114__split_bufferIPiNS_9allocatorIS1_EEE5beginB8ue170006Ev, symObjAddr: 0x247C, symBinAddr: 0x100003FD4, symSize: 0x18 }
  - { offsetInCU: 0x11B9A, offset: 0x11B9A, size: 0x8, addend: 0x0, symName: __ZNSt3__114__split_bufferIPiNS_9allocatorIS1_EEE3endB8ue170006Ev, symObjAddr: 0x2494, symBinAddr: 0x100003FEC, symSize: 0x18 }
  - { offsetInCU: 0x11BC0, offset: 0x11BC0, size: 0x8, addend: 0x0, symName: __ZNSt3__116allocator_traitsINS_9allocatorIiEEE10deallocateB8ue170006ERS2_Pim, symObjAddr: 0x24AC, symBinAddr: 0x100004004, symSize: 0x34 }
  - { offsetInCU: 0x11C02, offset: 0x11C02, size: 0x8, addend: 0x0, symName: __ZNSt3__15dequeIiNS_9allocatorIiEEE7__allocB8ue170006Ev, symObjAddr: 0x24E0, symBinAddr: 0x100004038, symSize: 0x28 }
  - { offsetInCU: 0x11C28, offset: 0x11C28, size: 0x8, addend: 0x0, symName: __ZNSt3__114__split_bufferIPiNS_9allocatorIS1_EEED1Ev, symObjAddr: 0x2508, symBinAddr: 0x100004060, symSize: 0x2C }
  - { offsetInCU: 0x11C54, offset: 0x11C54, size: 0x8, addend: 0x0, symName: __ZNSt3__15dequeIiNS_9allocatorIiEEE5beginB8ue170006Ev, symObjAddr: 0x2534, symBinAddr: 0x10000408C, symSize: 0xCC }
  - { offsetInCU: 0x11C89, offset: 0x11C89, size: 0x8, addend: 0x0, symName: __ZNSt3__15dequeIiNS_9allocatorIiEEE3endB8ue170006Ev, symObjAddr: 0x2600, symBinAddr: 0x100004158, symSize: 0xBC }
  - { offsetInCU: 0x11CCD, offset: 0x11CCD, size: 0x8, addend: 0x0, symName: __ZNSt3__116allocator_traitsINS_9allocatorIiEEE7destroyB8ue170006IivEEvRS2_PT_, symObjAddr: 0x26F0, symBinAddr: 0x100004248, symSize: 0x2C }
  - { offsetInCU: 0x11D0A, offset: 0x11D0A, size: 0x8, addend: 0x0, symName: __ZNKSt3__116__deque_iteratorIiPiRiPS1_lLl1024EEdeB8ue170006Ev, symObjAddr: 0x271C, symBinAddr: 0x100004274, symSize: 0x18 }
  - { offsetInCU: 0x11D30, offset: 0x11D30, size: 0x8, addend: 0x0, symName: __ZNSt3__116__deque_iteratorIiPiRiPS1_lLl1024EEppB8ue170006Ev, symObjAddr: 0x2734, symBinAddr: 0x10000428C, symSize: 0x70 }
  - { offsetInCU: 0x11D56, offset: 0x11D56, size: 0x8, addend: 0x0, symName: __ZNSt3__15dequeIiNS_9allocatorIiEEE6__sizeB8ue170006Ev, symObjAddr: 0x27A4, symBinAddr: 0x1000042FC, symSize: 0x28 }
  - { offsetInCU: 0x11D7C, offset: 0x11D7C, size: 0x8, addend: 0x0, symName: __ZNKSt3__114__split_bufferIPiNS_9allocatorIS1_EEE4sizeB8ue170006Ev, symObjAddr: 0x27CC, symBinAddr: 0x100004324, symSize: 0x28 }
  - { offsetInCU: 0x11DA2, offset: 0x11DA2, size: 0x8, addend: 0x0, symName: __ZNSt3__114__split_bufferIPiNS_9allocatorIS1_EEE5frontB8ue170006Ev, symObjAddr: 0x27F4, symBinAddr: 0x10000434C, symSize: 0x18 }
  - { offsetInCU: 0x11DC8, offset: 0x11DC8, size: 0x8, addend: 0x0, symName: __ZNSt3__114__split_bufferIPiNS_9allocatorIS1_EEE9pop_frontB8ue170006Ev, symObjAddr: 0x280C, symBinAddr: 0x100004364, symSize: 0x2C }
  - { offsetInCU: 0x11DEE, offset: 0x11DEE, size: 0x8, addend: 0x0, symName: __ZNKSt3__15dequeIiNS_9allocatorIiEEE14__annotate_newB8ue170006Em, symObjAddr: 0x2838, symBinAddr: 0x100004390, symSize: 0xB8 }
  - { offsetInCU: 0x11E23, offset: 0x11E23, size: 0x8, addend: 0x0, symName: __ZNKSt3__114__split_bufferIPiNS_9allocatorIS1_EEE5emptyB8ue170006Ev, symObjAddr: 0x28F0, symBinAddr: 0x100004448, symSize: 0x28 }
  - { offsetInCU: 0x11E49, offset: 0x11E49, size: 0x8, addend: 0x0, symName: __ZNSt3__116__deque_iteratorIiPiRiPS1_lLl1024EEC1B8ue170006ES3_S1_, symObjAddr: 0x2918, symBinAddr: 0x100004470, symSize: 0x3C }
  - { offsetInCU: 0x11E91, offset: 0x11E91, size: 0x8, addend: 0x0, symName: __ZNSt3__116__deque_iteratorIiPiRiPS1_lLl1024EEC2B8ue170006ES3_S1_, symObjAddr: 0x2954, symBinAddr: 0x1000044AC, symSize: 0x2C }
  - { offsetInCU: 0x11ED9, offset: 0x11ED9, size: 0x8, addend: 0x0, symName: __ZNKSt3__15dequeIiNS_9allocatorIiEEE4sizeB8ue170006Ev, symObjAddr: 0x2980, symBinAddr: 0x1000044D8, symSize: 0x28 }
  - { offsetInCU: 0x11EFF, offset: 0x11EFF, size: 0x8, addend: 0x0, symName: __ZNKSt3__15dequeIiNS_9allocatorIiEEE6__sizeB8ue170006Ev, symObjAddr: 0x29A8, symBinAddr: 0x100004500, symSize: 0x28 }
  - { offsetInCU: 0x11F25, offset: 0x11F25, size: 0x8, addend: 0x0, symName: __ZNKSt3__117__compressed_pairImNS_9allocatorIiEEE5firstB8ue170006Ev, symObjAddr: 0x29D0, symBinAddr: 0x100004528, symSize: 0x24 }
  - { offsetInCU: 0x11F4B, offset: 0x11F4B, size: 0x8, addend: 0x0, symName: __ZNKSt3__122__compressed_pair_elemImLi0ELb0EE5__getB8ue170006Ev, symObjAddr: 0x29F4, symBinAddr: 0x10000454C, symSize: 0x14 }
  - { offsetInCU: 0x11F71, offset: 0x11F71, size: 0x8, addend: 0x0, symName: __ZNSt3__19allocatorIiE7destroyB8ue170006EPi, symObjAddr: 0x2A38, symBinAddr: 0x100004590, symSize: 0x14 }
  - { offsetInCU: 0x11FA5, offset: 0x11FA5, size: 0x8, addend: 0x0, symName: __ZNSt3__117__compressed_pairImNS_9allocatorIiEEE5firstB8ue170006Ev, symObjAddr: 0x2A4C, symBinAddr: 0x1000045A4, symSize: 0x24 }
  - { offsetInCU: 0x11FCB, offset: 0x11FCB, size: 0x8, addend: 0x0, symName: __ZNSt3__122__compressed_pair_elemImLi0ELb0EE5__getB8ue170006Ev, symObjAddr: 0x2A70, symBinAddr: 0x1000045C8, symSize: 0x14 }
  - { offsetInCU: 0x11FF1, offset: 0x11FF1, size: 0x8, addend: 0x0, symName: __ZNSt3__114__split_bufferIPiNS_9allocatorIS1_EEE19__destruct_at_beginB8ue170006EPS1_, symObjAddr: 0x2A84, symBinAddr: 0x1000045DC, symSize: 0x2C }
  - { offsetInCU: 0x12025, offset: 0x12025, size: 0x8, addend: 0x0, symName: __ZNSt3__114__split_bufferIPiNS_9allocatorIS1_EEE19__destruct_at_beginEPS1_NS_17integral_constantIbLb1EEE, symObjAddr: 0x2AB0, symBinAddr: 0x100004608, symSize: 0x20 }
  - { offsetInCU: 0x12065, offset: 0x12065, size: 0x8, addend: 0x0, symName: __ZNKSt3__15dequeIiNS_9allocatorIiEEE18__annotate_from_toB8ue170006EmmNS3_22__asan_annotation_typeENS3_23__asan_annotation_placeE, symObjAddr: 0x2AD0, symBinAddr: 0x100004628, symSize: 0x580 }
  - { offsetInCU: 0x12221, offset: 0x12221, size: 0x8, addend: 0x0, symName: __ZNKSt3__114__split_bufferIPiNS_9allocatorIS1_EEE5beginB8ue170006Ev, symObjAddr: 0x3050, symBinAddr: 0x100004BA8, symSize: 0x18 }
  - { offsetInCU: 0x12247, offset: 0x12247, size: 0x8, addend: 0x0, symName: __ZNKSt3__15dequeIiNS_9allocatorIiEEE5emptyB8ue170006Ev, symObjAddr: 0x3068, symBinAddr: 0x100004BC0, symSize: 0x30 }
  - { offsetInCU: 0x1226D, offset: 0x1226D, size: 0x8, addend: 0x0, symName: __ZNKSt3__15dequeIiNS_9allocatorIiEEE44__annotate_double_ended_contiguous_containerB8ue170006EPKvS5_S5_S5_S5_S5_, symObjAddr: 0x30AC, symBinAddr: 0x100004C04, symSize: 0x28 }
  - { offsetInCU: 0x122DB, offset: 0x122DB, size: 0x8, addend: 0x0, symName: __ZNKSt3__15dequeIiNS_9allocatorIiEEE22__annotate_whole_blockB8ue170006EmNS3_22__asan_annotation_typeE, symObjAddr: 0x30D4, symBinAddr: 0x100004C2C, symSize: 0xAC }
  - { offsetInCU: 0x1234C, offset: 0x1234C, size: 0x8, addend: 0x0, symName: __ZNKSt3__15dequeIiNS_9allocatorIiEEE23__annotate_poison_blockB8ue170006EPKvS5_, symObjAddr: 0x3180, symBinAddr: 0x100004CD8, symSize: 0x44 }
  - { offsetInCU: 0x12390, offset: 0x12390, size: 0x8, addend: 0x0, symName: __ZNSt3__19allocatorIiE10deallocateB8ue170006EPim, symObjAddr: 0x31C4, symBinAddr: 0x100004D1C, symSize: 0x70 }
  - { offsetInCU: 0x123D2, offset: 0x123D2, size: 0x8, addend: 0x0, symName: __ZNSt3__117__compressed_pairImNS_9allocatorIiEEE6secondB8ue170006Ev, symObjAddr: 0x32BC, symBinAddr: 0x100004E14, symSize: 0x24 }
  - { offsetInCU: 0x123F8, offset: 0x123F8, size: 0x8, addend: 0x0, symName: __ZNSt3__122__compressed_pair_elemINS_9allocatorIiEELi1ELb1EE5__getB8ue170006Ev, symObjAddr: 0x32E0, symBinAddr: 0x100004E38, symSize: 0x14 }
  - { offsetInCU: 0x1241E, offset: 0x1241E, size: 0x8, addend: 0x0, symName: __ZNSt3__114__split_bufferIPiNS_9allocatorIS1_EEED2Ev, symObjAddr: 0x32F4, symBinAddr: 0x100004E4C, symSize: 0x80 }
  - { offsetInCU: 0x1244A, offset: 0x1244A, size: 0x8, addend: 0x0, symName: __ZNSt3__114__split_bufferIPiNS_9allocatorIS1_EEE5clearB8ue170006Ev, symObjAddr: 0x3374, symBinAddr: 0x100004ECC, symSize: 0x28 }
  - { offsetInCU: 0x12470, offset: 0x12470, size: 0x8, addend: 0x0, symName: __ZNSt3__116allocator_traitsINS_9allocatorIPiEEE10deallocateB8ue170006ERS3_PS2_m, symObjAddr: 0x339C, symBinAddr: 0x100004EF4, symSize: 0x34 }
  - { offsetInCU: 0x124B2, offset: 0x124B2, size: 0x8, addend: 0x0, symName: __ZNSt3__114__split_bufferIPiNS_9allocatorIS1_EEE7__allocB8ue170006Ev, symObjAddr: 0x33D0, symBinAddr: 0x100004F28, symSize: 0x28 }
  - { offsetInCU: 0x124D8, offset: 0x124D8, size: 0x8, addend: 0x0, symName: __ZNKSt3__114__split_bufferIPiNS_9allocatorIS1_EEE8capacityB8ue170006Ev, symObjAddr: 0x33F8, symBinAddr: 0x100004F50, symSize: 0x40 }
  - { offsetInCU: 0x124FE, offset: 0x124FE, size: 0x8, addend: 0x0, symName: __ZNSt3__114__split_bufferIPiNS_9allocatorIS1_EEE17__destruct_at_endB8ue170006EPS1_, symObjAddr: 0x3438, symBinAddr: 0x100004F90, symSize: 0x2C }
  - { offsetInCU: 0x12532, offset: 0x12532, size: 0x8, addend: 0x0, symName: __ZNSt3__114__split_bufferIPiNS_9allocatorIS1_EEE17__destruct_at_endB8ue170006EPS1_NS_17integral_constantIbLb0EEE, symObjAddr: 0x3464, symBinAddr: 0x100004FBC, symSize: 0x94 }
  - { offsetInCU: 0x12572, offset: 0x12572, size: 0x8, addend: 0x0, symName: __ZNSt3__116allocator_traitsINS_9allocatorIPiEEE7destroyB8ue170006IS2_vEEvRS3_PT_, symObjAddr: 0x34F8, symBinAddr: 0x100005050, symSize: 0x2C }
  - { offsetInCU: 0x125AF, offset: 0x125AF, size: 0x8, addend: 0x0, symName: __ZNSt3__19allocatorIPiE7destroyB8ue170006EPS1_, symObjAddr: 0x3538, symBinAddr: 0x100005090, symSize: 0x14 }
  - { offsetInCU: 0x125E3, offset: 0x125E3, size: 0x8, addend: 0x0, symName: __ZNSt3__19allocatorIPiE10deallocateB8ue170006EPS1_m, symObjAddr: 0x354C, symBinAddr: 0x1000050A4, symSize: 0x70 }
  - { offsetInCU: 0x12625, offset: 0x12625, size: 0x8, addend: 0x0, symName: __ZNSt3__117__compressed_pairIPPiNS_9allocatorIS1_EEE6secondB8ue170006Ev, symObjAddr: 0x35BC, symBinAddr: 0x100005114, symSize: 0x24 }
  - { offsetInCU: 0x1264B, offset: 0x1264B, size: 0x8, addend: 0x0, symName: __ZNSt3__122__compressed_pair_elemINS_9allocatorIPiEELi1ELb1EE5__getB8ue170006Ev, symObjAddr: 0x35E0, symBinAddr: 0x100005138, symSize: 0x14 }
  - { offsetInCU: 0x12671, offset: 0x12671, size: 0x8, addend: 0x0, symName: __ZNKSt3__114__split_bufferIPiNS_9allocatorIS1_EEE9__end_capB8ue170006Ev, symObjAddr: 0x35F4, symBinAddr: 0x10000514C, symSize: 0x28 }
  - { offsetInCU: 0x12697, offset: 0x12697, size: 0x8, addend: 0x0, symName: __ZNKSt3__117__compressed_pairIPPiNS_9allocatorIS1_EEE5firstB8ue170006Ev, symObjAddr: 0x361C, symBinAddr: 0x100005174, symSize: 0x24 }
  - { offsetInCU: 0x126BD, offset: 0x126BD, size: 0x8, addend: 0x0, symName: __ZNKSt3__122__compressed_pair_elemIPPiLi0ELb0EE5__getB8ue170006Ev, symObjAddr: 0x3640, symBinAddr: 0x100005198, symSize: 0x14 }
  - { offsetInCU: 0x126E3, offset: 0x126E3, size: 0x8, addend: 0x0, symName: __ZNSt3__15queueIP8dag_nodeNS_5dequeIS2_NS_9allocatorIS2_EEEEED2Ev, symObjAddr: 0x3654, symBinAddr: 0x1000051AC, symSize: 0x2C }
  - { offsetInCU: 0x12710, offset: 0x12710, size: 0x8, addend: 0x0, symName: __ZNSt3__15dequeIP8dag_nodeNS_9allocatorIS2_EEED1B8ue170006Ev, symObjAddr: 0x3680, symBinAddr: 0x1000051D8, symSize: 0x2C }
  - { offsetInCU: 0x1273A, offset: 0x1273A, size: 0x8, addend: 0x0, symName: __ZNSt3__15dequeIP8dag_nodeNS_9allocatorIS2_EEED2B8ue170006Ev, symObjAddr: 0x36AC, symBinAddr: 0x100005204, symSize: 0xA4 }
  - { offsetInCU: 0x12790, offset: 0x12790, size: 0x8, addend: 0x0, symName: __ZNSt3__15dequeIP8dag_nodeNS_9allocatorIS2_EEE5clearEv, symObjAddr: 0x3750, symBinAddr: 0x1000052A8, symSize: 0x1A8 }
  - { offsetInCU: 0x127F3, offset: 0x127F3, size: 0x8, addend: 0x0, symName: __ZNKSt3__15dequeIP8dag_nodeNS_9allocatorIS2_EEE17__annotate_deleteB8ue170006Ev, symObjAddr: 0x38F8, symBinAddr: 0x100005450, symSize: 0xE8 }
  - { offsetInCU: 0x12836, offset: 0x12836, size: 0x8, addend: 0x0, symName: __ZNSt3__114__split_bufferIPP8dag_nodeNS_9allocatorIS3_EEE5beginB8ue170006Ev, symObjAddr: 0x39E0, symBinAddr: 0x100005538, symSize: 0x18 }
  - { offsetInCU: 0x1285C, offset: 0x1285C, size: 0x8, addend: 0x0, symName: __ZNSt3__114__split_bufferIPP8dag_nodeNS_9allocatorIS3_EEE3endB8ue170006Ev, symObjAddr: 0x39F8, symBinAddr: 0x100005550, symSize: 0x18 }
  - { offsetInCU: 0x12882, offset: 0x12882, size: 0x8, addend: 0x0, symName: __ZNSt3__116allocator_traitsINS_9allocatorIP8dag_nodeEEE10deallocateB8ue170006ERS4_PS3_m, symObjAddr: 0x3A10, symBinAddr: 0x100005568, symSize: 0x34 }
  - { offsetInCU: 0x128C4, offset: 0x128C4, size: 0x8, addend: 0x0, symName: __ZNSt3__15dequeIP8dag_nodeNS_9allocatorIS2_EEE7__allocB8ue170006Ev, symObjAddr: 0x3A44, symBinAddr: 0x10000559C, symSize: 0x28 }
  - { offsetInCU: 0x128EA, offset: 0x128EA, size: 0x8, addend: 0x0, symName: __ZNSt3__114__split_bufferIPP8dag_nodeNS_9allocatorIS3_EEED1Ev, symObjAddr: 0x3A6C, symBinAddr: 0x1000055C4, symSize: 0x2C }
  - { offsetInCU: 0x12916, offset: 0x12916, size: 0x8, addend: 0x0, symName: __ZNSt3__15dequeIP8dag_nodeNS_9allocatorIS2_EEE5beginB8ue170006Ev, symObjAddr: 0x3A98, symBinAddr: 0x1000055F0, symSize: 0xCC }
  - { offsetInCU: 0x1294B, offset: 0x1294B, size: 0x8, addend: 0x0, symName: __ZNSt3__15dequeIP8dag_nodeNS_9allocatorIS2_EEE3endB8ue170006Ev, symObjAddr: 0x3B64, symBinAddr: 0x1000056BC, symSize: 0xBC }
  - { offsetInCU: 0x1298F, offset: 0x1298F, size: 0x8, addend: 0x0, symName: __ZNSt3__116allocator_traitsINS_9allocatorIP8dag_nodeEEE7destroyB8ue170006IS3_vEEvRS4_PT_, symObjAddr: 0x3C54, symBinAddr: 0x1000057AC, symSize: 0x2C }
  - { offsetInCU: 0x129CC, offset: 0x129CC, size: 0x8, addend: 0x0, symName: __ZNKSt3__116__deque_iteratorIP8dag_nodePS2_RS2_PS3_lLl512EEdeB8ue170006Ev, symObjAddr: 0x3C80, symBinAddr: 0x1000057D8, symSize: 0x18 }
  - { offsetInCU: 0x129F2, offset: 0x129F2, size: 0x8, addend: 0x0, symName: __ZNSt3__116__deque_iteratorIP8dag_nodePS2_RS2_PS3_lLl512EEppB8ue170006Ev, symObjAddr: 0x3C98, symBinAddr: 0x1000057F0, symSize: 0x70 }
  - { offsetInCU: 0x12A18, offset: 0x12A18, size: 0x8, addend: 0x0, symName: __ZNSt3__15dequeIP8dag_nodeNS_9allocatorIS2_EEE6__sizeB8ue170006Ev, symObjAddr: 0x3D08, symBinAddr: 0x100005860, symSize: 0x28 }
  - { offsetInCU: 0x12A3E, offset: 0x12A3E, size: 0x8, addend: 0x0, symName: __ZNKSt3__114__split_bufferIPP8dag_nodeNS_9allocatorIS3_EEE4sizeB8ue170006Ev, symObjAddr: 0x3D30, symBinAddr: 0x100005888, symSize: 0x28 }
  - { offsetInCU: 0x12A64, offset: 0x12A64, size: 0x8, addend: 0x0, symName: __ZNSt3__114__split_bufferIPP8dag_nodeNS_9allocatorIS3_EEE5frontB8ue170006Ev, symObjAddr: 0x3D58, symBinAddr: 0x1000058B0, symSize: 0x18 }
  - { offsetInCU: 0x12A8A, offset: 0x12A8A, size: 0x8, addend: 0x0, symName: __ZNSt3__114__split_bufferIPP8dag_nodeNS_9allocatorIS3_EEE9pop_frontB8ue170006Ev, symObjAddr: 0x3D70, symBinAddr: 0x1000058C8, symSize: 0x2C }
  - { offsetInCU: 0x12AB0, offset: 0x12AB0, size: 0x8, addend: 0x0, symName: __ZNKSt3__15dequeIP8dag_nodeNS_9allocatorIS2_EEE14__annotate_newB8ue170006Em, symObjAddr: 0x3D9C, symBinAddr: 0x1000058F4, symSize: 0xB8 }
  - { offsetInCU: 0x12AE5, offset: 0x12AE5, size: 0x8, addend: 0x0, symName: __ZNKSt3__114__split_bufferIPP8dag_nodeNS_9allocatorIS3_EEE5emptyB8ue170006Ev, symObjAddr: 0x3E54, symBinAddr: 0x1000059AC, symSize: 0x28 }
  - { offsetInCU: 0x12B0B, offset: 0x12B0B, size: 0x8, addend: 0x0, symName: __ZNSt3__116__deque_iteratorIP8dag_nodePS2_RS2_PS3_lLl512EEC1B8ue170006ES5_S3_, symObjAddr: 0x3E7C, symBinAddr: 0x1000059D4, symSize: 0x3C }
  - { offsetInCU: 0x12B53, offset: 0x12B53, size: 0x8, addend: 0x0, symName: __ZNSt3__116__deque_iteratorIP8dag_nodePS2_RS2_PS3_lLl512EEC2B8ue170006ES5_S3_, symObjAddr: 0x3EB8, symBinAddr: 0x100005A10, symSize: 0x2C }
  - { offsetInCU: 0x12B9B, offset: 0x12B9B, size: 0x8, addend: 0x0, symName: __ZNKSt3__15dequeIP8dag_nodeNS_9allocatorIS2_EEE4sizeB8ue170006Ev, symObjAddr: 0x3EE4, symBinAddr: 0x100005A3C, symSize: 0x28 }
  - { offsetInCU: 0x12BC1, offset: 0x12BC1, size: 0x8, addend: 0x0, symName: __ZNKSt3__15dequeIP8dag_nodeNS_9allocatorIS2_EEE6__sizeB8ue170006Ev, symObjAddr: 0x3F0C, symBinAddr: 0x100005A64, symSize: 0x28 }
  - { offsetInCU: 0x12BE7, offset: 0x12BE7, size: 0x8, addend: 0x0, symName: __ZNKSt3__117__compressed_pairImNS_9allocatorIP8dag_nodeEEE5firstB8ue170006Ev, symObjAddr: 0x3F34, symBinAddr: 0x100005A8C, symSize: 0x24 }
  - { offsetInCU: 0x12C0D, offset: 0x12C0D, size: 0x8, addend: 0x0, symName: __ZNSt3__19allocatorIP8dag_nodeE7destroyB8ue170006EPS2_, symObjAddr: 0x3F88, symBinAddr: 0x100005AE0, symSize: 0x14 }
  - { offsetInCU: 0x12C41, offset: 0x12C41, size: 0x8, addend: 0x0, symName: __ZNSt3__117__compressed_pairImNS_9allocatorIP8dag_nodeEEE5firstB8ue170006Ev, symObjAddr: 0x3F9C, symBinAddr: 0x100005AF4, symSize: 0x24 }
  - { offsetInCU: 0x12C67, offset: 0x12C67, size: 0x8, addend: 0x0, symName: __ZNSt3__114__split_bufferIPP8dag_nodeNS_9allocatorIS3_EEE19__destruct_at_beginB8ue170006EPS3_, symObjAddr: 0x3FC0, symBinAddr: 0x100005B18, symSize: 0x2C }
  - { offsetInCU: 0x12C9B, offset: 0x12C9B, size: 0x8, addend: 0x0, symName: __ZNSt3__114__split_bufferIPP8dag_nodeNS_9allocatorIS3_EEE19__destruct_at_beginEPS3_NS_17integral_constantIbLb1EEE, symObjAddr: 0x3FEC, symBinAddr: 0x100005B44, symSize: 0x20 }
  - { offsetInCU: 0x12CDB, offset: 0x12CDB, size: 0x8, addend: 0x0, symName: __ZNKSt3__15dequeIP8dag_nodeNS_9allocatorIS2_EEE18__annotate_from_toB8ue170006EmmNS5_22__asan_annotation_typeENS5_23__asan_annotation_placeE, symObjAddr: 0x400C, symBinAddr: 0x100005B64, symSize: 0x580 }
  - { offsetInCU: 0x12E97, offset: 0x12E97, size: 0x8, addend: 0x0, symName: __ZNKSt3__114__split_bufferIPP8dag_nodeNS_9allocatorIS3_EEE5beginB8ue170006Ev, symObjAddr: 0x458C, symBinAddr: 0x1000060E4, symSize: 0x18 }
  - { offsetInCU: 0x12EBD, offset: 0x12EBD, size: 0x8, addend: 0x0, symName: __ZNKSt3__15dequeIP8dag_nodeNS_9allocatorIS2_EEE5emptyB8ue170006Ev, symObjAddr: 0x45A4, symBinAddr: 0x1000060FC, symSize: 0x30 }
  - { offsetInCU: 0x12EE3, offset: 0x12EE3, size: 0x8, addend: 0x0, symName: __ZNKSt3__15dequeIP8dag_nodeNS_9allocatorIS2_EEE44__annotate_double_ended_contiguous_containerB8ue170006EPKvS7_S7_S7_S7_S7_, symObjAddr: 0x45E8, symBinAddr: 0x100006140, symSize: 0x28 }
  - { offsetInCU: 0x12F51, offset: 0x12F51, size: 0x8, addend: 0x0, symName: __ZNKSt3__15dequeIP8dag_nodeNS_9allocatorIS2_EEE22__annotate_whole_blockB8ue170006EmNS5_22__asan_annotation_typeE, symObjAddr: 0x4610, symBinAddr: 0x100006168, symSize: 0xAC }
  - { offsetInCU: 0x12FC2, offset: 0x12FC2, size: 0x8, addend: 0x0, symName: __ZNKSt3__15dequeIP8dag_nodeNS_9allocatorIS2_EEE23__annotate_poison_blockB8ue170006EPKvS7_, symObjAddr: 0x46BC, symBinAddr: 0x100006214, symSize: 0x44 }
  - { offsetInCU: 0x13006, offset: 0x13006, size: 0x8, addend: 0x0, symName: __ZNSt3__19allocatorIP8dag_nodeE10deallocateB8ue170006EPS2_m, symObjAddr: 0x4700, symBinAddr: 0x100006258, symSize: 0x70 }
  - { offsetInCU: 0x13048, offset: 0x13048, size: 0x8, addend: 0x0, symName: __ZNSt3__117__compressed_pairImNS_9allocatorIP8dag_nodeEEE6secondB8ue170006Ev, symObjAddr: 0x4770, symBinAddr: 0x1000062C8, symSize: 0x24 }
  - { offsetInCU: 0x1306E, offset: 0x1306E, size: 0x8, addend: 0x0, symName: __ZNSt3__122__compressed_pair_elemINS_9allocatorIP8dag_nodeEELi1ELb1EE5__getB8ue170006Ev, symObjAddr: 0x4794, symBinAddr: 0x1000062EC, symSize: 0x14 }
  - { offsetInCU: 0x13094, offset: 0x13094, size: 0x8, addend: 0x0, symName: __ZNSt3__114__split_bufferIPP8dag_nodeNS_9allocatorIS3_EEED2Ev, symObjAddr: 0x47A8, symBinAddr: 0x100006300, symSize: 0x80 }
  - { offsetInCU: 0x130C0, offset: 0x130C0, size: 0x8, addend: 0x0, symName: __ZNSt3__114__split_bufferIPP8dag_nodeNS_9allocatorIS3_EEE5clearB8ue170006Ev, symObjAddr: 0x4828, symBinAddr: 0x100006380, symSize: 0x28 }
  - { offsetInCU: 0x130E6, offset: 0x130E6, size: 0x8, addend: 0x0, symName: __ZNSt3__116allocator_traitsINS_9allocatorIPP8dag_nodeEEE10deallocateB8ue170006ERS5_PS4_m, symObjAddr: 0x4850, symBinAddr: 0x1000063A8, symSize: 0x34 }
  - { offsetInCU: 0x13128, offset: 0x13128, size: 0x8, addend: 0x0, symName: __ZNSt3__114__split_bufferIPP8dag_nodeNS_9allocatorIS3_EEE7__allocB8ue170006Ev, symObjAddr: 0x4884, symBinAddr: 0x1000063DC, symSize: 0x28 }
  - { offsetInCU: 0x1314E, offset: 0x1314E, size: 0x8, addend: 0x0, symName: __ZNKSt3__114__split_bufferIPP8dag_nodeNS_9allocatorIS3_EEE8capacityB8ue170006Ev, symObjAddr: 0x48AC, symBinAddr: 0x100006404, symSize: 0x40 }
  - { offsetInCU: 0x13174, offset: 0x13174, size: 0x8, addend: 0x0, symName: __ZNSt3__114__split_bufferIPP8dag_nodeNS_9allocatorIS3_EEE17__destruct_at_endB8ue170006EPS3_, symObjAddr: 0x48EC, symBinAddr: 0x100006444, symSize: 0x2C }
  - { offsetInCU: 0x131A8, offset: 0x131A8, size: 0x8, addend: 0x0, symName: __ZNSt3__114__split_bufferIPP8dag_nodeNS_9allocatorIS3_EEE17__destruct_at_endB8ue170006EPS3_NS_17integral_constantIbLb0EEE, symObjAddr: 0x4918, symBinAddr: 0x100006470, symSize: 0x94 }
  - { offsetInCU: 0x131E8, offset: 0x131E8, size: 0x8, addend: 0x0, symName: __ZNSt3__116allocator_traitsINS_9allocatorIPP8dag_nodeEEE7destroyB8ue170006IS4_vEEvRS5_PT_, symObjAddr: 0x49AC, symBinAddr: 0x100006504, symSize: 0x2C }
  - { offsetInCU: 0x13225, offset: 0x13225, size: 0x8, addend: 0x0, symName: __ZNSt3__19allocatorIPP8dag_nodeE7destroyB8ue170006EPS3_, symObjAddr: 0x49EC, symBinAddr: 0x100006544, symSize: 0x14 }
  - { offsetInCU: 0x13259, offset: 0x13259, size: 0x8, addend: 0x0, symName: __ZNSt3__19allocatorIPP8dag_nodeE10deallocateB8ue170006EPS3_m, symObjAddr: 0x4A00, symBinAddr: 0x100006558, symSize: 0x70 }
  - { offsetInCU: 0x1329B, offset: 0x1329B, size: 0x8, addend: 0x0, symName: __ZNSt3__117__compressed_pairIPPP8dag_nodeNS_9allocatorIS3_EEE6secondB8ue170006Ev, symObjAddr: 0x4A70, symBinAddr: 0x1000065C8, symSize: 0x24 }
  - { offsetInCU: 0x132C1, offset: 0x132C1, size: 0x8, addend: 0x0, symName: __ZNSt3__122__compressed_pair_elemINS_9allocatorIPP8dag_nodeEELi1ELb1EE5__getB8ue170006Ev, symObjAddr: 0x4A94, symBinAddr: 0x1000065EC, symSize: 0x14 }
  - { offsetInCU: 0x132E7, offset: 0x132E7, size: 0x8, addend: 0x0, symName: __ZNKSt3__114__split_bufferIPP8dag_nodeNS_9allocatorIS3_EEE9__end_capB8ue170006Ev, symObjAddr: 0x4AA8, symBinAddr: 0x100006600, symSize: 0x28 }
  - { offsetInCU: 0x1330D, offset: 0x1330D, size: 0x8, addend: 0x0, symName: __ZNKSt3__117__compressed_pairIPPP8dag_nodeNS_9allocatorIS3_EEE5firstB8ue170006Ev, symObjAddr: 0x4AD0, symBinAddr: 0x100006628, symSize: 0x24 }
  - { offsetInCU: 0x13333, offset: 0x13333, size: 0x8, addend: 0x0, symName: __ZNKSt3__122__compressed_pair_elemIPPP8dag_nodeLi0ELb0EE5__getB8ue170006Ev, symObjAddr: 0x4AF4, symBinAddr: 0x10000664C, symSize: 0x14 }
  - { offsetInCU: 0x13359, offset: 0x13359, size: 0x8, addend: 0x0, symName: __ZNSt3__15stackIiNS_5dequeIiNS_9allocatorIiEEEEEC2B8ue170006Ev, symObjAddr: 0x4B08, symBinAddr: 0x100006660, symSize: 0x2C }
  - { offsetInCU: 0x13383, offset: 0x13383, size: 0x8, addend: 0x0, symName: __ZNSt3__15dequeIiNS_9allocatorIiEEEC1B8ue170006Ev, symObjAddr: 0x4B34, symBinAddr: 0x10000668C, symSize: 0x2C }
  - { offsetInCU: 0x133AD, offset: 0x133AD, size: 0x8, addend: 0x0, symName: __ZNSt3__15dequeIiNS_9allocatorIiEEEC2B8ue170006Ev, symObjAddr: 0x4B60, symBinAddr: 0x1000066B8, symSize: 0x84 }
  - { offsetInCU: 0x133D7, offset: 0x133D7, size: 0x8, addend: 0x0, symName: __ZNSt3__114__split_bufferIPiNS_9allocatorIS1_EEEC1B8ue170006Ev, symObjAddr: 0x4BE4, symBinAddr: 0x10000673C, symSize: 0x2C }
  - { offsetInCU: 0x1340B, offset: 0x1340B, size: 0x8, addend: 0x0, symName: __ZNSt3__117__compressed_pairImNS_9allocatorIiEEEC1B8ue170006IiNS_18__default_init_tagEEEOT_OT0_, symObjAddr: 0x4C10, symBinAddr: 0x100006768, symSize: 0x3C }
  - { offsetInCU: 0x13463, offset: 0x13463, size: 0x8, addend: 0x0, symName: __ZNSt3__114__split_bufferIPiNS_9allocatorIS1_EEEC2B8ue170006Ev, symObjAddr: 0x4C4C, symBinAddr: 0x1000067A4, symSize: 0x48 }
  - { offsetInCU: 0x13492, offset: 0x13492, size: 0x8, addend: 0x0, symName: __ZNSt3__117__compressed_pairIPPiNS_9allocatorIS1_EEEC1B8ue170006IDnNS_18__default_init_tagEEEOT_OT0_, symObjAddr: 0x4C94, symBinAddr: 0x1000067EC, symSize: 0x3C }
  - { offsetInCU: 0x134EA, offset: 0x134EA, size: 0x8, addend: 0x0, symName: __ZNSt3__117__compressed_pairIPPiNS_9allocatorIS1_EEEC2B8ue170006IDnNS_18__default_init_tagEEEOT_OT0_, symObjAddr: 0x4CD0, symBinAddr: 0x100006828, symSize: 0x40 }
  - { offsetInCU: 0x13542, offset: 0x13542, size: 0x8, addend: 0x0, symName: __ZNSt3__122__compressed_pair_elemIPPiLi0ELb0EEC2B8ue170006IDnvEEOT_, symObjAddr: 0x4D10, symBinAddr: 0x100006868, symSize: 0x1C }
  - { offsetInCU: 0x13584, offset: 0x13584, size: 0x8, addend: 0x0, symName: __ZNSt3__122__compressed_pair_elemINS_9allocatorIPiEELi1ELb1EEC2B8ue170006ENS_18__default_init_tagE, symObjAddr: 0x4D2C, symBinAddr: 0x100006884, symSize: 0x2C }
  - { offsetInCU: 0x135B8, offset: 0x135B8, size: 0x8, addend: 0x0, symName: __ZNSt3__19allocatorIPiEC2B8ue170006Ev, symObjAddr: 0x4D58, symBinAddr: 0x1000068B0, symSize: 0x2C }
  - { offsetInCU: 0x135E2, offset: 0x135E2, size: 0x8, addend: 0x0, symName: __ZNSt3__116__non_trivial_ifILb1ENS_9allocatorIPiEEEC2B8ue170006Ev, symObjAddr: 0x4D84, symBinAddr: 0x1000068DC, symSize: 0x14 }
  - { offsetInCU: 0x1360C, offset: 0x1360C, size: 0x8, addend: 0x0, symName: __ZNSt3__117__compressed_pairImNS_9allocatorIiEEEC2B8ue170006IiNS_18__default_init_tagEEEOT_OT0_, symObjAddr: 0x4D98, symBinAddr: 0x1000068F0, symSize: 0x40 }
  - { offsetInCU: 0x13664, offset: 0x13664, size: 0x8, addend: 0x0, symName: __ZNSt3__122__compressed_pair_elemImLi0ELb0EEC2B8ue170006IivEEOT_, symObjAddr: 0x4DD8, symBinAddr: 0x100006930, symSize: 0x24 }
  - { offsetInCU: 0x136A6, offset: 0x136A6, size: 0x8, addend: 0x0, symName: __ZNSt3__122__compressed_pair_elemINS_9allocatorIiEELi1ELb1EEC2B8ue170006ENS_18__default_init_tagE, symObjAddr: 0x4DFC, symBinAddr: 0x100006954, symSize: 0x2C }
  - { offsetInCU: 0x136DA, offset: 0x136DA, size: 0x8, addend: 0x0, symName: __ZNSt3__19allocatorIiEC2B8ue170006Ev, symObjAddr: 0x4E28, symBinAddr: 0x100006980, symSize: 0x2C }
  - { offsetInCU: 0x13704, offset: 0x13704, size: 0x8, addend: 0x0, symName: __ZNSt3__116__non_trivial_ifILb1ENS_9allocatorIiEEEC2B8ue170006Ev, symObjAddr: 0x4E54, symBinAddr: 0x1000069AC, symSize: 0x14 }
  - { offsetInCU: 0x1372E, offset: 0x1372E, size: 0x8, addend: 0x0, symName: __ZNSt3__15queueIP8dag_nodeNS_5dequeIS2_NS_9allocatorIS2_EEEEEC2B8ue170006Ev, symObjAddr: 0x4E68, symBinAddr: 0x1000069C0, symSize: 0x2C }
  - { offsetInCU: 0x13758, offset: 0x13758, size: 0x8, addend: 0x0, symName: __ZNSt3__15dequeIP8dag_nodeNS_9allocatorIS2_EEEC1B8ue170006Ev, symObjAddr: 0x4E94, symBinAddr: 0x1000069EC, symSize: 0x2C }
  - { offsetInCU: 0x13782, offset: 0x13782, size: 0x8, addend: 0x0, symName: __ZNSt3__15dequeIP8dag_nodeNS_9allocatorIS2_EEEC2B8ue170006Ev, symObjAddr: 0x4EC0, symBinAddr: 0x100006A18, symSize: 0x84 }
  - { offsetInCU: 0x137AC, offset: 0x137AC, size: 0x8, addend: 0x0, symName: __ZNSt3__114__split_bufferIPP8dag_nodeNS_9allocatorIS3_EEEC1B8ue170006Ev, symObjAddr: 0x4F44, symBinAddr: 0x100006A9C, symSize: 0x2C }
  - { offsetInCU: 0x137D6, offset: 0x137D6, size: 0x8, addend: 0x0, symName: __ZNSt3__117__compressed_pairImNS_9allocatorIP8dag_nodeEEEC1B8ue170006IiNS_18__default_init_tagEEEOT_OT0_, symObjAddr: 0x4F70, symBinAddr: 0x100006AC8, symSize: 0x3C }
  - { offsetInCU: 0x1382E, offset: 0x1382E, size: 0x8, addend: 0x0, symName: __ZNSt3__114__split_bufferIPP8dag_nodeNS_9allocatorIS3_EEEC2B8ue170006Ev, symObjAddr: 0x4FAC, symBinAddr: 0x100006B04, symSize: 0x48 }
  - { offsetInCU: 0x13858, offset: 0x13858, size: 0x8, addend: 0x0, symName: __ZNSt3__117__compressed_pairIPPP8dag_nodeNS_9allocatorIS3_EEEC1B8ue170006IDnNS_18__default_init_tagEEEOT_OT0_, symObjAddr: 0x4FF4, symBinAddr: 0x100006B4C, symSize: 0x3C }
  - { offsetInCU: 0x138B0, offset: 0x138B0, size: 0x8, addend: 0x0, symName: __ZNSt3__117__compressed_pairIPPP8dag_nodeNS_9allocatorIS3_EEEC2B8ue170006IDnNS_18__default_init_tagEEEOT_OT0_, symObjAddr: 0x5030, symBinAddr: 0x100006B88, symSize: 0x40 }
  - { offsetInCU: 0x13908, offset: 0x13908, size: 0x8, addend: 0x0, symName: __ZNSt3__122__compressed_pair_elemIPPP8dag_nodeLi0ELb0EEC2B8ue170006IDnvEEOT_, symObjAddr: 0x5070, symBinAddr: 0x100006BC8, symSize: 0x1C }
  - { offsetInCU: 0x1394A, offset: 0x1394A, size: 0x8, addend: 0x0, symName: __ZNSt3__122__compressed_pair_elemINS_9allocatorIPP8dag_nodeEELi1ELb1EEC2B8ue170006ENS_18__default_init_tagE, symObjAddr: 0x508C, symBinAddr: 0x100006BE4, symSize: 0x2C }
  - { offsetInCU: 0x1397E, offset: 0x1397E, size: 0x8, addend: 0x0, symName: __ZNSt3__19allocatorIPP8dag_nodeEC2B8ue170006Ev, symObjAddr: 0x50B8, symBinAddr: 0x100006C10, symSize: 0x2C }
  - { offsetInCU: 0x139A8, offset: 0x139A8, size: 0x8, addend: 0x0, symName: __ZNSt3__116__non_trivial_ifILb1ENS_9allocatorIPP8dag_nodeEEEC2B8ue170006Ev, symObjAddr: 0x50E4, symBinAddr: 0x100006C3C, symSize: 0x14 }
  - { offsetInCU: 0x139D2, offset: 0x139D2, size: 0x8, addend: 0x0, symName: __ZNSt3__117__compressed_pairImNS_9allocatorIP8dag_nodeEEEC2B8ue170006IiNS_18__default_init_tagEEEOT_OT0_, symObjAddr: 0x50F8, symBinAddr: 0x100006C50, symSize: 0x40 }
  - { offsetInCU: 0x13A2A, offset: 0x13A2A, size: 0x8, addend: 0x0, symName: __ZNSt3__122__compressed_pair_elemINS_9allocatorIP8dag_nodeEELi1ELb1EEC2B8ue170006ENS_18__default_init_tagE, symObjAddr: 0x5138, symBinAddr: 0x100006C90, symSize: 0x2C }
  - { offsetInCU: 0x13A5E, offset: 0x13A5E, size: 0x8, addend: 0x0, symName: __ZNSt3__19allocatorIP8dag_nodeEC2B8ue170006Ev, symObjAddr: 0x5164, symBinAddr: 0x100006CBC, symSize: 0x2C }
  - { offsetInCU: 0x13A88, offset: 0x13A88, size: 0x8, addend: 0x0, symName: __ZNSt3__116__non_trivial_ifILb1ENS_9allocatorIP8dag_nodeEEEC2B8ue170006Ev, symObjAddr: 0x5190, symBinAddr: 0x100006CE8, symSize: 0x14 }
  - { offsetInCU: 0x13AB2, offset: 0x13AB2, size: 0x8, addend: 0x0, symName: __ZNSt3__16vectorIbNS_9allocatorIbEEEC2EmRKb, symObjAddr: 0x51A4, symBinAddr: 0x100006CFC, symSize: 0x90 }
  - { offsetInCU: 0x13AFC, offset: 0x13AFC, size: 0x8, addend: 0x0, symName: __ZNSt3__117__compressed_pairImNS_9allocatorImEEEC1B8ue170006IiNS_18__default_init_tagEEEOT_OT0_, symObjAddr: 0x5234, symBinAddr: 0x100006D8C, symSize: 0x3C }
  - { offsetInCU: 0x13B54, offset: 0x13B54, size: 0x8, addend: 0x0, symName: __ZNSt3__16vectorIbNS_9allocatorIbEEE11__vallocateB8ue170006Em, symObjAddr: 0x5270, symBinAddr: 0x100006DC8, symSize: 0x10C }
  - { offsetInCU: 0x13BB5, offset: 0x13BB5, size: 0x8, addend: 0x0, symName: __ZNSt3__16vectorIbNS_9allocatorIbEEE18__construct_at_endB8ue170006Emb, symObjAddr: 0x537C, symBinAddr: 0x100006ED4, symSize: 0x108 }
  - { offsetInCU: 0x13C0A, offset: 0x13C0A, size: 0x8, addend: 0x0, symName: __ZNSt3__117__compressed_pairImNS_9allocatorImEEEC2B8ue170006IiNS_18__default_init_tagEEEOT_OT0_, symObjAddr: 0x5484, symBinAddr: 0x100006FDC, symSize: 0x40 }
  - { offsetInCU: 0x13C62, offset: 0x13C62, size: 0x8, addend: 0x0, symName: __ZNSt3__122__compressed_pair_elemINS_9allocatorImEELi1ELb1EEC2B8ue170006ENS_18__default_init_tagE, symObjAddr: 0x54C4, symBinAddr: 0x10000701C, symSize: 0x2C }
  - { offsetInCU: 0x13C96, offset: 0x13C96, size: 0x8, addend: 0x0, symName: __ZNSt3__19allocatorImEC2B8ue170006Ev, symObjAddr: 0x54F0, symBinAddr: 0x100007048, symSize: 0x2C }
  - { offsetInCU: 0x13CC0, offset: 0x13CC0, size: 0x8, addend: 0x0, symName: __ZNSt3__116__non_trivial_ifILb1ENS_9allocatorImEEEC2B8ue170006Ev, symObjAddr: 0x551C, symBinAddr: 0x100007074, symSize: 0x14 }
  - { offsetInCU: 0x13CEA, offset: 0x13CEA, size: 0x8, addend: 0x0, symName: __ZNKSt3__16vectorIbNS_9allocatorIbEEE8max_sizeEv, symObjAddr: 0x5530, symBinAddr: 0x100007088, symSize: 0x7C }
  - { offsetInCU: 0x13D30, offset: 0x13D30, size: 0x8, addend: 0x0, symName: __ZNKSt3__16vectorIbNS_9allocatorIbEEE20__throw_length_errorB8ue170006Ev, symObjAddr: 0x55AC, symBinAddr: 0x100007104, symSize: 0x1C }
  - { offsetInCU: 0x13D56, offset: 0x13D56, size: 0x8, addend: 0x0, symName: __ZNSt3__16vectorIbNS_9allocatorIbEEE7__allocB8ue170006Ev, symObjAddr: 0x5608, symBinAddr: 0x100007160, symSize: 0x28 }
  - { offsetInCU: 0x13D7C, offset: 0x13D7C, size: 0x8, addend: 0x0, symName: __ZNSt3__16vectorIbNS_9allocatorIbEEE26__external_cap_to_internalB8ue170006Em, symObjAddr: 0x5630, symBinAddr: 0x100007188, symSize: 0x24 }
  - { offsetInCU: 0x13DA0, offset: 0x13DA0, size: 0x8, addend: 0x0, symName: __ZNSt3__16vectorIbNS_9allocatorIbEEE5__capB8ue170006Ev, symObjAddr: 0x5654, symBinAddr: 0x1000071AC, symSize: 0x28 }
  - { offsetInCU: 0x13DD0, offset: 0x13DD0, size: 0x8, addend: 0x0, symName: __ZNSt3__116allocator_traitsINS_9allocatorImEEE8max_sizeB8ue170006IS2_vEEmRKS2_, symObjAddr: 0x56B0, symBinAddr: 0x100007208, symSize: 0x24 }
  - { offsetInCU: 0x13DFE, offset: 0x13DFE, size: 0x8, addend: 0x0, symName: __ZNKSt3__16vectorIbNS_9allocatorIbEEE7__allocB8ue170006Ev, symObjAddr: 0x56D4, symBinAddr: 0x10000722C, symSize: 0x28 }
  - { offsetInCU: 0x13E24, offset: 0x13E24, size: 0x8, addend: 0x0, symName: __ZNSt3__114numeric_limitsImE3maxB8ue170006Ev, symObjAddr: 0x56FC, symBinAddr: 0x100007254, symSize: 0x14 }
  - { offsetInCU: 0x13E38, offset: 0x13E38, size: 0x8, addend: 0x0, symName: __ZNSt3__16vectorIbNS_9allocatorIbEEE26__internal_cap_to_externalB8ue170006Em, symObjAddr: 0x5710, symBinAddr: 0x100007268, symSize: 0x18 }
  - { offsetInCU: 0x13E5C, offset: 0x13E5C, size: 0x8, addend: 0x0, symName: __ZNKSt3__19allocatorImE8max_sizeB8ue170006Ev, symObjAddr: 0x5728, symBinAddr: 0x100007280, symSize: 0x14 }
  - { offsetInCU: 0x13E82, offset: 0x13E82, size: 0x8, addend: 0x0, symName: __ZNKSt3__117__compressed_pairImNS_9allocatorImEEE6secondB8ue170006Ev, symObjAddr: 0x573C, symBinAddr: 0x100007294, symSize: 0x24 }
  - { offsetInCU: 0x13EA8, offset: 0x13EA8, size: 0x8, addend: 0x0, symName: __ZNKSt3__122__compressed_pair_elemINS_9allocatorImEELi1ELb1EE5__getB8ue170006Ev, symObjAddr: 0x5760, symBinAddr: 0x1000072B8, symSize: 0x14 }
  - { offsetInCU: 0x13ECE, offset: 0x13ECE, size: 0x8, addend: 0x0, symName: __ZNSt3__123__libcpp_numeric_limitsImLb1EE3maxB8ue170006Ev, symObjAddr: 0x5774, symBinAddr: 0x1000072CC, symSize: 0x8 }
  - { offsetInCU: 0x13EE2, offset: 0x13EE2, size: 0x8, addend: 0x0, symName: __ZNSt12length_errorC1B8ue170006EPKc, symObjAddr: 0x57E0, symBinAddr: 0x100007338, symSize: 0x34 }
  - { offsetInCU: 0x13F1A, offset: 0x13F1A, size: 0x8, addend: 0x0, symName: __ZNSt12length_errorC2B8ue170006EPKc, symObjAddr: 0x5814, symBinAddr: 0x10000736C, symSize: 0x4C }
  - { offsetInCU: 0x13F52, offset: 0x13F52, size: 0x8, addend: 0x0, symName: __ZNSt3__19allocatorImE8allocateB8ue170006Em, symObjAddr: 0x5860, symBinAddr: 0x1000073B8, symSize: 0x84 }
  - { offsetInCU: 0x13F86, offset: 0x13F86, size: 0x8, addend: 0x0, symName: __ZNSt3__117__compressed_pairImNS_9allocatorImEEE6secondB8ue170006Ev, symObjAddr: 0x5964, symBinAddr: 0x1000074BC, symSize: 0x24 }
  - { offsetInCU: 0x13FAC, offset: 0x13FAC, size: 0x8, addend: 0x0, symName: __ZNSt3__122__compressed_pair_elemINS_9allocatorImEELi1ELb1EE5__getB8ue170006Ev, symObjAddr: 0x5988, symBinAddr: 0x1000074E0, symSize: 0x14 }
  - { offsetInCU: 0x13FD2, offset: 0x13FD2, size: 0x8, addend: 0x0, symName: __ZNSt3__117__compressed_pairImNS_9allocatorImEEE5firstB8ue170006Ev, symObjAddr: 0x599C, symBinAddr: 0x1000074F4, symSize: 0x24 }
  - { offsetInCU: 0x13FF8, offset: 0x13FF8, size: 0x8, addend: 0x0, symName: __ZNSt3__16vectorIbNS_9allocatorIbEEE11__make_iterB8ue170006Em, symObjAddr: 0x5A54, symBinAddr: 0x1000075AC, symSize: 0x64 }
  - { offsetInCU: 0x1402D, offset: 0x1402D, size: 0x8, addend: 0x0, symName: __ZNSt3__114__bit_iteratorINS_6vectorIbNS_9allocatorIbEEEELb0ELm0EEC1B8ue170006ERKS5_, symObjAddr: 0x5C18, symBinAddr: 0x100007770, symSize: 0x34 }
  - { offsetInCU: 0x14070, offset: 0x14070, size: 0x8, addend: 0x0, symName: __ZNKSt3__16__lessIvvEclB8ue170006ImmEEbRKT_RKT0_, symObjAddr: 0x5E6C, symBinAddr: 0x1000079C4, symSize: 0x34 }
  - { offsetInCU: 0x140C4, offset: 0x140C4, size: 0x8, addend: 0x0, symName: __ZNSt3__114__bit_iteratorINS_6vectorIbNS_9allocatorIbEEEELb0ELm0EEC2B8ue170006ERKS5_, symObjAddr: 0x5F18, symBinAddr: 0x100007A70, symSize: 0x30 }
  - { offsetInCU: 0x140FD, offset: 0x140FD, size: 0x8, addend: 0x0, symName: __ZNSt3__114__bit_iteratorINS_6vectorIbNS_9allocatorIbEEEELb0ELm0EEC1B8ue170006EPmj, symObjAddr: 0x5FF0, symBinAddr: 0x100007B48, symSize: 0x3C }
  - { offsetInCU: 0x14145, offset: 0x14145, size: 0x8, addend: 0x0, symName: __ZNSt3__114__bit_iteratorINS_6vectorIbNS_9allocatorIbEEEELb0ELm0EEC2B8ue170006EPmj, symObjAddr: 0x602C, symBinAddr: 0x100007B84, symSize: 0x2C }
  - { offsetInCU: 0x1418D, offset: 0x1418D, size: 0x8, addend: 0x0, symName: __ZNSt3__16vectorIbNS_9allocatorIbEEED2B8ue170006Ev, symObjAddr: 0x6058, symBinAddr: 0x100007BB0, symSize: 0x3C }
  - { offsetInCU: 0x141B7, offset: 0x141B7, size: 0x8, addend: 0x0, symName: __ZNSt3__16vectorIbNS_9allocatorIbEEE16__destroy_vectorC1B8ue170006ERS3_, symObjAddr: 0x6094, symBinAddr: 0x100007BEC, symSize: 0x34 }
  - { offsetInCU: 0x141F0, offset: 0x141F0, size: 0x8, addend: 0x0, symName: __ZNSt3__16vectorIbNS_9allocatorIbEEE16__destroy_vectorclB8ue170006Ev, symObjAddr: 0x60C8, symBinAddr: 0x100007C20, symSize: 0x7C }
  - { offsetInCU: 0x14216, offset: 0x14216, size: 0x8, addend: 0x0, symName: __ZNSt3__16vectorIbNS_9allocatorIbEEE16__destroy_vectorC2B8ue170006ERS3_, symObjAddr: 0x6144, symBinAddr: 0x100007C9C, symSize: 0x20 }
  - { offsetInCU: 0x1424F, offset: 0x1424F, size: 0x8, addend: 0x0, symName: __ZNSt3__116allocator_traitsINS_9allocatorImEEE10deallocateB8ue170006ERS2_Pmm, symObjAddr: 0x6164, symBinAddr: 0x100007CBC, symSize: 0x34 }
  - { offsetInCU: 0x14291, offset: 0x14291, size: 0x8, addend: 0x0, symName: __ZNSt3__19allocatorImE10deallocateB8ue170006EPmm, symObjAddr: 0x6198, symBinAddr: 0x100007CF0, symSize: 0x70 }
  - { offsetInCU: 0x142D3, offset: 0x142D3, size: 0x8, addend: 0x0, symName: __ZNSt3__15dequeIP8dag_nodeNS_9allocatorIS2_EEE9push_backERKS2_, symObjAddr: 0x6208, symBinAddr: 0x100007D60, symSize: 0xAC }
  - { offsetInCU: 0x14319, offset: 0x14319, size: 0x8, addend: 0x0, symName: __ZNKSt3__15dequeIP8dag_nodeNS_9allocatorIS2_EEE12__back_spareB8ue170006Ev, symObjAddr: 0x62B4, symBinAddr: 0x100007E0C, symSize: 0x54 }
  - { offsetInCU: 0x1433F, offset: 0x1433F, size: 0x8, addend: 0x0, symName: __ZNSt3__15dequeIP8dag_nodeNS_9allocatorIS2_EEE19__add_back_capacityEv, symObjAddr: 0x6308, symBinAddr: 0x100007E60, symSize: 0x364 }
  - { offsetInCU: 0x143F4, offset: 0x143F4, size: 0x8, addend: 0x0, symName: __ZNKSt3__15dequeIP8dag_nodeNS_9allocatorIS2_EEE24__annotate_increase_backB8ue170006Em, symObjAddr: 0x666C, symBinAddr: 0x1000081C4, symSize: 0x7C }
  - { offsetInCU: 0x14429, offset: 0x14429, size: 0x8, addend: 0x0, symName: __ZNSt3__116allocator_traitsINS_9allocatorIP8dag_nodeEEE9constructB8ue170006IS3_JRKS3_EvEEvRS4_PT_DpOT0_, symObjAddr: 0x66E8, symBinAddr: 0x100008240, symSize: 0x34 }
  - { offsetInCU: 0x14480, offset: 0x14480, size: 0x8, addend: 0x0, symName: __ZNKSt3__15dequeIP8dag_nodeNS_9allocatorIS2_EEE10__capacityB8ue170006Ev, symObjAddr: 0x671C, symBinAddr: 0x100008274, symSize: 0x60 }
  - { offsetInCU: 0x144A6, offset: 0x144A6, size: 0x8, addend: 0x0, symName: __ZNKSt3__15dequeIP8dag_nodeNS_9allocatorIS2_EEE13__front_spareB8ue170006Ev, symObjAddr: 0x677C, symBinAddr: 0x1000082D4, symSize: 0x18 }
  - { offsetInCU: 0x144CC, offset: 0x144CC, size: 0x8, addend: 0x0, symName: __ZNSt3__114__split_bufferIPP8dag_nodeNS_9allocatorIS3_EEE9push_backB8ue170006ERKS3_, symObjAddr: 0x6794, symBinAddr: 0x1000082EC, symSize: 0x270 }
  - { offsetInCU: 0x14544, offset: 0x14544, size: 0x8, addend: 0x0, symName: __ZNKSt3__114__split_bufferIPP8dag_nodeNS_9allocatorIS3_EEE12__back_spareB8ue170006Ev, symObjAddr: 0x6A04, symBinAddr: 0x10000855C, symSize: 0x40 }
  - { offsetInCU: 0x1456A, offset: 0x1456A, size: 0x8, addend: 0x0, symName: __ZNSt3__114__split_bufferIPP8dag_nodeNS_9allocatorIS3_EEE9push_backEOS3_, symObjAddr: 0x6A44, symBinAddr: 0x10000859C, symSize: 0x270 }
  - { offsetInCU: 0x145E2, offset: 0x145E2, size: 0x8, addend: 0x0, symName: __ZNSt3__116allocator_traitsINS_9allocatorIP8dag_nodeEEE8allocateB8ue170006ERS4_m, symObjAddr: 0x6CB4, symBinAddr: 0x10000880C, symSize: 0x2C }
  - { offsetInCU: 0x14615, offset: 0x14615, size: 0x8, addend: 0x0, symName: __ZNSt3__114__split_bufferIPP8dag_nodeNS_9allocatorIS3_EEE10push_frontEOS3_, symObjAddr: 0x6CE0, symBinAddr: 0x100008838, symSize: 0x26C }
  - { offsetInCU: 0x1468D, offset: 0x1468D, size: 0x8, addend: 0x0, symName: __ZNSt3__114__split_bufferIPP8dag_nodeRNS_9allocatorIS3_EEEC1EmmS6_, symObjAddr: 0x6F78, symBinAddr: 0x100008AD0, symSize: 0x44 }
  - { offsetInCU: 0x146E8, offset: 0x146E8, size: 0x8, addend: 0x0, symName: __ZNSt3__122__allocator_destructorINS_9allocatorIP8dag_nodeEEEC1B8ue170006ERS4_m, symObjAddr: 0x6FBC, symBinAddr: 0x100008B14, symSize: 0x3C }
  - { offsetInCU: 0x147B0, offset: 0x147B0, size: 0x8, addend: 0x0, symName: __ZNSt3__110unique_ptrIPP8dag_nodeNS_22__allocator_destructorINS_9allocatorIS2_EEEEEC1B8ue170006ILb1EvEES3_NS_16__dependent_typeINS_27__unique_ptr_deleter_sfinaeIS7_EEXT_EE20__good_rval_ref_typeE, symObjAddr: 0x6FF8, symBinAddr: 0x100008B50, symSize: 0x3C }
  - { offsetInCU: 0x14801, offset: 0x14801, size: 0x8, addend: 0x0, symName: __ZNSt3__114__split_bufferIPP8dag_nodeRNS_9allocatorIS3_EEE9push_backEOS3_, symObjAddr: 0x7034, symBinAddr: 0x100008B8C, symSize: 0x270 }
  - { offsetInCU: 0x14879, offset: 0x14879, size: 0x8, addend: 0x0, symName: __ZNKSt3__110unique_ptrIPP8dag_nodeNS_22__allocator_destructorINS_9allocatorIS2_EEEEE3getB8ue170006Ev, symObjAddr: 0x72A4, symBinAddr: 0x100008DFC, symSize: 0x28 }
  - { offsetInCU: 0x1489F, offset: 0x1489F, size: 0x8, addend: 0x0, symName: __ZNSt3__110unique_ptrIPP8dag_nodeNS_22__allocator_destructorINS_9allocatorIS2_EEEEE7releaseB8ue170006Ev, symObjAddr: 0x72CC, symBinAddr: 0x100008E24, symSize: 0x44 }
  - { offsetInCU: 0x148D4, offset: 0x148D4, size: 0x8, addend: 0x0, symName: __ZNSt3__114__split_bufferIPP8dag_nodeRNS_9allocatorIS3_EEE10push_frontERKS3_, symObjAddr: 0x7310, symBinAddr: 0x100008E68, symSize: 0x26C }
  - { offsetInCU: 0x1494C, offset: 0x1494C, size: 0x8, addend: 0x0, symName: __ZNSt3__114__split_bufferIPP8dag_nodeNS_9allocatorIS3_EEE9__end_capB8ue170006Ev, symObjAddr: 0x75B8, symBinAddr: 0x100009110, symSize: 0x28 }
  - { offsetInCU: 0x14972, offset: 0x14972, size: 0x8, addend: 0x0, symName: __ZNSt3__114__split_bufferIPP8dag_nodeRNS_9allocatorIS3_EEE9__end_capB8ue170006Ev, symObjAddr: 0x75E0, symBinAddr: 0x100009138, symSize: 0x28 }
  - { offsetInCU: 0x14998, offset: 0x14998, size: 0x8, addend: 0x0, symName: __ZNSt3__110unique_ptrIPP8dag_nodeNS_22__allocator_destructorINS_9allocatorIS2_EEEEED1B8ue170006Ev, symObjAddr: 0x7608, symBinAddr: 0x100009160, symSize: 0x2C }
  - { offsetInCU: 0x149C2, offset: 0x149C2, size: 0x8, addend: 0x0, symName: __ZNSt3__114__split_bufferIPP8dag_nodeRNS_9allocatorIS3_EEED1Ev, symObjAddr: 0x7634, symBinAddr: 0x10000918C, symSize: 0x2C }
  - { offsetInCU: 0x149EE, offset: 0x149EE, size: 0x8, addend: 0x0, symName: __ZNSt3__114__split_bufferIPP8dag_nodeRNS_9allocatorIS3_EEE18__construct_at_endINS_13move_iteratorIPS3_EEEENS_9enable_ifIXsr31__has_forward_iterator_categoryIT_EE5valueEvE4typeESD_SD_, symObjAddr: 0x76A0, symBinAddr: 0x1000091F8, symSize: 0x60 }
  - { offsetInCU: 0x14A3B, offset: 0x14A3B, size: 0x8, addend: 0x0, symName: __ZNSt3__113move_iteratorIPPP8dag_nodeEC1B8ue170006ES4_, symObjAddr: 0x7700, symBinAddr: 0x100009258, symSize: 0x34 }
  - { offsetInCU: 0x14A73, offset: 0x14A73, size: 0x8, addend: 0x0, symName: __ZNSt3__116allocator_traitsINS_9allocatorIPP8dag_nodeEEE9constructB8ue170006IS4_JRKS4_EvEEvRS5_PT_DpOT0_, symObjAddr: 0x7734, symBinAddr: 0x10000928C, symSize: 0x34 }
  - { offsetInCU: 0x14AED, offset: 0x14AED, size: 0x8, addend: 0x0, symName: __ZNKSt3__114__move_trivialclB8ue170006IPP8dag_nodeS4_Li0EEENS_4pairIPT_PT0_EES7_S7_S9_, symObjAddr: 0x7904, symBinAddr: 0x10000945C, symSize: 0x48 }
  - { offsetInCU: 0x14B55, offset: 0x14B55, size: 0x8, addend: 0x0, symName: __ZNSt3__14pairIPPP8dag_nodeS4_EC1B8ue170006ERKS4_S7_, symObjAddr: 0x7B7C, symBinAddr: 0x1000096D4, symSize: 0x3C }
  - { offsetInCU: 0x14B9B, offset: 0x14B9B, size: 0x8, addend: 0x0, symName: __ZNSt3__14pairIPPP8dag_nodeS4_EC2B8ue170006ERKS4_S7_, symObjAddr: 0x7BB8, symBinAddr: 0x100009710, symSize: 0x34 }
  - { offsetInCU: 0x14BE1, offset: 0x14BE1, size: 0x8, addend: 0x0, symName: __ZNSt3__118__unwrap_iter_implIPPP8dag_nodeLb1EE8__unwrapB8ue170006ES4_, symObjAddr: 0x7BEC, symBinAddr: 0x100009744, symSize: 0x24 }
  - { offsetInCU: 0x14C04, offset: 0x14C04, size: 0x8, addend: 0x0, symName: __ZNSt3__118__unwrap_iter_implIPPP8dag_nodeLb1EE8__rewrapB8ue170006ES4_S4_, symObjAddr: 0x7C10, symBinAddr: 0x100009768, symSize: 0x50 }
  - { offsetInCU: 0x14C35, offset: 0x14C35, size: 0x8, addend: 0x0, symName: __ZNSt3__114__split_bufferIPP8dag_nodeRNS_9allocatorIS3_EEE28__construct_at_end_with_sizeINS_13move_iteratorIPS3_EEEEvT_m, symObjAddr: 0x7C60, symBinAddr: 0x1000097B8, symSize: 0xE4 }
  - { offsetInCU: 0x14C9B, offset: 0x14C9B, size: 0x8, addend: 0x0, symName: __ZNSt3__114__split_bufferIPP8dag_nodeRNS_9allocatorIS3_EEE21_ConstructTransactionC1B8ue170006EPPS3_m, symObjAddr: 0x7D80, symBinAddr: 0x1000098D8, symSize: 0x3C }
  - { offsetInCU: 0x14CE1, offset: 0x14CE1, size: 0x8, addend: 0x0, symName: __ZNSt3__116allocator_traitsINS_9allocatorIPP8dag_nodeEEE9constructB8ue170006IS4_JS4_EvEEvRS5_PT_DpOT0_, symObjAddr: 0x7DBC, symBinAddr: 0x100009914, symSize: 0x34 }
  - { offsetInCU: 0x14D38, offset: 0x14D38, size: 0x8, addend: 0x0, symName: __ZNSt3__114__split_bufferIPP8dag_nodeRNS_9allocatorIS3_EEE7__allocB8ue170006Ev, symObjAddr: 0x7DF0, symBinAddr: 0x100009948, symSize: 0x28 }
  - { offsetInCU: 0x14D5E, offset: 0x14D5E, size: 0x8, addend: 0x0, symName: __ZNKSt3__113move_iteratorIPPP8dag_nodeEdeB8ue170006Ev, symObjAddr: 0x7E18, symBinAddr: 0x100009970, symSize: 0x18 }
  - { offsetInCU: 0x14D84, offset: 0x14D84, size: 0x8, addend: 0x0, symName: __ZNSt3__113move_iteratorIPPP8dag_nodeEppB8ue170006Ev, symObjAddr: 0x7E30, symBinAddr: 0x100009988, symSize: 0x20 }
  - { offsetInCU: 0x14DAA, offset: 0x14DAA, size: 0x8, addend: 0x0, symName: __ZNSt3__114__split_bufferIPP8dag_nodeRNS_9allocatorIS3_EEE21_ConstructTransactionD1B8ue170006Ev, symObjAddr: 0x7E50, symBinAddr: 0x1000099A8, symSize: 0x2C }
  - { offsetInCU: 0x14DD4, offset: 0x14DD4, size: 0x8, addend: 0x0, symName: __ZNSt3__114__split_bufferIPP8dag_nodeRNS_9allocatorIS3_EEE21_ConstructTransactionC2B8ue170006EPPS3_m, symObjAddr: 0x7E7C, symBinAddr: 0x1000099D4, symSize: 0x44 }
  - { offsetInCU: 0x14E1A, offset: 0x14E1A, size: 0x8, addend: 0x0, symName: __ZNSt3__19allocatorIPP8dag_nodeE9constructB8ue170006IS3_JS3_EEEvPT_DpOT0_, symObjAddr: 0x7EC0, symBinAddr: 0x100009A18, symSize: 0x28 }
  - { offsetInCU: 0x14E70, offset: 0x14E70, size: 0x8, addend: 0x0, symName: __ZNSt3__117__compressed_pairIPPP8dag_nodeRNS_9allocatorIS3_EEE6secondB8ue170006Ev, symObjAddr: 0x7EE8, symBinAddr: 0x100009A40, symSize: 0x28 }
  - { offsetInCU: 0x14E96, offset: 0x14E96, size: 0x8, addend: 0x0, symName: __ZNSt3__122__compressed_pair_elemIRNS_9allocatorIPP8dag_nodeEELi1ELb0EE5__getB8ue170006Ev, symObjAddr: 0x7F10, symBinAddr: 0x100009A68, symSize: 0x18 }
  - { offsetInCU: 0x14EBC, offset: 0x14EBC, size: 0x8, addend: 0x0, symName: __ZNSt3__114__split_bufferIPP8dag_nodeRNS_9allocatorIS3_EEE21_ConstructTransactionD2B8ue170006Ev, symObjAddr: 0x7F28, symBinAddr: 0x100009A80, symSize: 0x20 }
  - { offsetInCU: 0x14EE6, offset: 0x14EE6, size: 0x8, addend: 0x0, symName: __ZNKSt3__113move_iteratorIPPP8dag_nodeE4baseB8ue170006Ev, symObjAddr: 0x7FC0, symBinAddr: 0x100009B18, symSize: 0x18 }
  - { offsetInCU: 0x14F0C, offset: 0x14F0C, size: 0x8, addend: 0x0, symName: __ZNSt3__113move_iteratorIPPP8dag_nodeEC2B8ue170006ES4_, symObjAddr: 0x7FD8, symBinAddr: 0x100009B30, symSize: 0x20 }
  - { offsetInCU: 0x14F44, offset: 0x14F44, size: 0x8, addend: 0x0, symName: __ZNSt3__19allocatorIPP8dag_nodeE9constructB8ue170006IS3_JRKS3_EEEvPT_DpOT0_, symObjAddr: 0x7FF8, symBinAddr: 0x100009B50, symSize: 0x28 }
  - { offsetInCU: 0x14F9A, offset: 0x14F9A, size: 0x8, addend: 0x0, symName: __ZNSt3__19allocatorIP8dag_nodeE8allocateB8ue170006Em, symObjAddr: 0x8020, symBinAddr: 0x100009B78, symSize: 0x84 }
  - { offsetInCU: 0x14FD8, offset: 0x14FD8, size: 0x8, addend: 0x0, symName: __ZNSt3__116allocator_traitsINS_9allocatorIP8dag_nodeEEE8max_sizeB8ue170006IS4_vEEmRKS4_, symObjAddr: 0x80A4, symBinAddr: 0x100009BFC, symSize: 0x24 }
  - { offsetInCU: 0x15006, offset: 0x15006, size: 0x8, addend: 0x0, symName: __ZNKSt3__19allocatorIP8dag_nodeE8max_sizeB8ue170006Ev, symObjAddr: 0x80C8, symBinAddr: 0x100009C20, symSize: 0x14 }
  - { offsetInCU: 0x15036, offset: 0x15036, size: 0x8, addend: 0x0, symName: __ZNKSt3__123__move_backward_trivialclB8ue170006IPP8dag_nodeS4_Li0EEENS_4pairIPT_PT0_EES7_S7_S9_, symObjAddr: 0x8258, symBinAddr: 0x100009DB0, symSize: 0x48 }
  - { offsetInCU: 0x1509E, offset: 0x1509E, size: 0x8, addend: 0x0, symName: __ZNSt3__114__split_bufferIPP8dag_nodeRNS_9allocatorIS3_EEEC2EmmS6_, symObjAddr: 0x83BC, symBinAddr: 0x100009F14, symSize: 0xD4 }
  - { offsetInCU: 0x15111, offset: 0x15111, size: 0x8, addend: 0x0, symName: __ZNSt3__117__compressed_pairIPPP8dag_nodeRNS_9allocatorIS3_EEEC1B8ue170006IDnS7_EEOT_OT0_, symObjAddr: 0x8490, symBinAddr: 0x100009FE8, symSize: 0x3C }
  - { offsetInCU: 0x15169, offset: 0x15169, size: 0x8, addend: 0x0, symName: __ZNSt3__117__compressed_pairIPPP8dag_nodeRNS_9allocatorIS3_EEEC2B8ue170006IDnS7_EEOT_OT0_, symObjAddr: 0x850C, symBinAddr: 0x10000A064, symSize: 0x48 }
  - { offsetInCU: 0x151C1, offset: 0x151C1, size: 0x8, addend: 0x0, symName: __ZNSt3__122__compressed_pair_elemIRNS_9allocatorIPP8dag_nodeEELi1ELb0EEC2B8ue170006IS6_vEEOT_, symObjAddr: 0x8554, symBinAddr: 0x10000A0AC, symSize: 0x20 }
  - { offsetInCU: 0x15203, offset: 0x15203, size: 0x8, addend: 0x0, symName: __ZNSt3__19allocatorIPP8dag_nodeE8allocateB8ue170006Em, symObjAddr: 0x8574, symBinAddr: 0x10000A0CC, symSize: 0x84 }
  - { offsetInCU: 0x15241, offset: 0x15241, size: 0x8, addend: 0x0, symName: __ZNSt3__116allocator_traitsINS_9allocatorIPP8dag_nodeEEE8max_sizeB8ue170006IS5_vEEmRKS5_, symObjAddr: 0x85F8, symBinAddr: 0x10000A150, symSize: 0x24 }
  - { offsetInCU: 0x1526F, offset: 0x1526F, size: 0x8, addend: 0x0, symName: __ZNKSt3__19allocatorIPP8dag_nodeE8max_sizeB8ue170006Ev, symObjAddr: 0x861C, symBinAddr: 0x10000A174, symSize: 0x14 }
  - { offsetInCU: 0x15295, offset: 0x15295, size: 0x8, addend: 0x0, symName: __ZNSt3__122__allocator_destructorINS_9allocatorIP8dag_nodeEEEC2B8ue170006ERS4_m, symObjAddr: 0x8630, symBinAddr: 0x10000A188, symSize: 0x2C }
  - { offsetInCU: 0x152DB, offset: 0x152DB, size: 0x8, addend: 0x0, symName: __ZNSt3__110unique_ptrIPP8dag_nodeNS_22__allocator_destructorINS_9allocatorIS2_EEEEEC2B8ue170006ILb1EvEES3_NS_16__dependent_typeINS_27__unique_ptr_deleter_sfinaeIS7_EEXT_EE20__good_rval_ref_typeE, symObjAddr: 0x865C, symBinAddr: 0x10000A1B4, symSize: 0x5C }
  - { offsetInCU: 0x1532C, offset: 0x1532C, size: 0x8, addend: 0x0, symName: __ZNSt3__117__compressed_pairIPP8dag_nodeNS_22__allocator_destructorINS_9allocatorIS2_EEEEEC1B8ue170006IRS3_S7_EEOT_OT0_, symObjAddr: 0x86B8, symBinAddr: 0x10000A210, symSize: 0x3C }
  - { offsetInCU: 0x15384, offset: 0x15384, size: 0x8, addend: 0x0, symName: __ZNSt3__117__compressed_pairIPP8dag_nodeNS_22__allocator_destructorINS_9allocatorIS2_EEEEEC2B8ue170006IRS3_S7_EEOT_OT0_, symObjAddr: 0x86F4, symBinAddr: 0x10000A24C, symSize: 0x48 }
  - { offsetInCU: 0x153DC, offset: 0x153DC, size: 0x8, addend: 0x0, symName: __ZNSt3__122__compressed_pair_elemIPP8dag_nodeLi0ELb0EEC2B8ue170006IRS3_vEEOT_, symObjAddr: 0x873C, symBinAddr: 0x10000A294, symSize: 0x24 }
  - { offsetInCU: 0x1541E, offset: 0x1541E, size: 0x8, addend: 0x0, symName: __ZNSt3__122__compressed_pair_elemINS_22__allocator_destructorINS_9allocatorIP8dag_nodeEEEELi1ELb0EEC2B8ue170006IS6_vEEOT_, symObjAddr: 0x8760, symBinAddr: 0x10000A2B8, symSize: 0x24 }
  - { offsetInCU: 0x15460, offset: 0x15460, size: 0x8, addend: 0x0, symName: __ZNKSt3__117__compressed_pairIPP8dag_nodeNS_22__allocator_destructorINS_9allocatorIS2_EEEEE5firstB8ue170006Ev, symObjAddr: 0x8784, symBinAddr: 0x10000A2DC, symSize: 0x24 }
  - { offsetInCU: 0x15486, offset: 0x15486, size: 0x8, addend: 0x0, symName: __ZNKSt3__122__compressed_pair_elemIPP8dag_nodeLi0ELb0EE5__getB8ue170006Ev, symObjAddr: 0x87A8, symBinAddr: 0x10000A300, symSize: 0x14 }
  - { offsetInCU: 0x154AC, offset: 0x154AC, size: 0x8, addend: 0x0, symName: __ZNSt3__117__compressed_pairIPP8dag_nodeNS_22__allocator_destructorINS_9allocatorIS2_EEEEE5firstB8ue170006Ev, symObjAddr: 0x87BC, symBinAddr: 0x10000A314, symSize: 0x24 }
  - { offsetInCU: 0x154D2, offset: 0x154D2, size: 0x8, addend: 0x0, symName: __ZNSt3__122__compressed_pair_elemIPP8dag_nodeLi0ELb0EE5__getB8ue170006Ev, symObjAddr: 0x87E0, symBinAddr: 0x10000A338, symSize: 0x14 }
  - { offsetInCU: 0x154F8, offset: 0x154F8, size: 0x8, addend: 0x0, symName: __ZNSt3__117__compressed_pairIPPP8dag_nodeNS_9allocatorIS3_EEE5firstB8ue170006Ev, symObjAddr: 0x87F4, symBinAddr: 0x10000A34C, symSize: 0x24 }
  - { offsetInCU: 0x1551E, offset: 0x1551E, size: 0x8, addend: 0x0, symName: __ZNSt3__122__compressed_pair_elemIPPP8dag_nodeLi0ELb0EE5__getB8ue170006Ev, symObjAddr: 0x8818, symBinAddr: 0x10000A370, symSize: 0x14 }
  - { offsetInCU: 0x15544, offset: 0x15544, size: 0x8, addend: 0x0, symName: __ZNSt3__117__compressed_pairIPPP8dag_nodeRNS_9allocatorIS3_EEE5firstB8ue170006Ev, symObjAddr: 0x882C, symBinAddr: 0x10000A384, symSize: 0x24 }
  - { offsetInCU: 0x1556A, offset: 0x1556A, size: 0x8, addend: 0x0, symName: __ZNSt3__110unique_ptrIPP8dag_nodeNS_22__allocator_destructorINS_9allocatorIS2_EEEEED2B8ue170006Ev, symObjAddr: 0x8850, symBinAddr: 0x10000A3A8, symSize: 0x30 }
  - { offsetInCU: 0x15594, offset: 0x15594, size: 0x8, addend: 0x0, symName: __ZNSt3__110unique_ptrIPP8dag_nodeNS_22__allocator_destructorINS_9allocatorIS2_EEEEE5resetB8ue170006ES3_, symObjAddr: 0x8880, symBinAddr: 0x10000A3D8, symSize: 0x78 }
  - { offsetInCU: 0x155D8, offset: 0x155D8, size: 0x8, addend: 0x0, symName: __ZNSt3__117__compressed_pairIPP8dag_nodeNS_22__allocator_destructorINS_9allocatorIS2_EEEEE6secondB8ue170006Ev, symObjAddr: 0x88F8, symBinAddr: 0x10000A450, symSize: 0x28 }
  - { offsetInCU: 0x155FE, offset: 0x155FE, size: 0x8, addend: 0x0, symName: __ZNSt3__122__allocator_destructorINS_9allocatorIP8dag_nodeEEEclB8ue170006EPS3_, symObjAddr: 0x8920, symBinAddr: 0x10000A478, symSize: 0x34 }
  - { offsetInCU: 0x15632, offset: 0x15632, size: 0x8, addend: 0x0, symName: __ZNSt3__122__compressed_pair_elemINS_22__allocator_destructorINS_9allocatorIP8dag_nodeEEEELi1ELb0EE5__getB8ue170006Ev, symObjAddr: 0x8954, symBinAddr: 0x10000A4AC, symSize: 0x14 }
  - { offsetInCU: 0x15658, offset: 0x15658, size: 0x8, addend: 0x0, symName: __ZNSt3__114__split_bufferIPP8dag_nodeRNS_9allocatorIS3_EEED2Ev, symObjAddr: 0x8968, symBinAddr: 0x10000A4C0, symSize: 0x80 }
  - { offsetInCU: 0x15684, offset: 0x15684, size: 0x8, addend: 0x0, symName: __ZNSt3__114__split_bufferIPP8dag_nodeRNS_9allocatorIS3_EEE5clearB8ue170006Ev, symObjAddr: 0x89E8, symBinAddr: 0x10000A540, symSize: 0x28 }
  - { offsetInCU: 0x156AA, offset: 0x156AA, size: 0x8, addend: 0x0, symName: __ZNKSt3__114__split_bufferIPP8dag_nodeRNS_9allocatorIS3_EEE8capacityB8ue170006Ev, symObjAddr: 0x8A10, symBinAddr: 0x10000A568, symSize: 0x40 }
  - { offsetInCU: 0x156D0, offset: 0x156D0, size: 0x8, addend: 0x0, symName: __ZNSt3__114__split_bufferIPP8dag_nodeRNS_9allocatorIS3_EEE17__destruct_at_endB8ue170006EPS3_, symObjAddr: 0x8A50, symBinAddr: 0x10000A5A8, symSize: 0x2C }
  - { offsetInCU: 0x15704, offset: 0x15704, size: 0x8, addend: 0x0, symName: __ZNSt3__114__split_bufferIPP8dag_nodeRNS_9allocatorIS3_EEE17__destruct_at_endB8ue170006EPS3_NS_17integral_constantIbLb0EEE, symObjAddr: 0x8A7C, symBinAddr: 0x10000A5D4, symSize: 0x94 }
  - { offsetInCU: 0x15744, offset: 0x15744, size: 0x8, addend: 0x0, symName: __ZNKSt3__114__split_bufferIPP8dag_nodeRNS_9allocatorIS3_EEE9__end_capB8ue170006Ev, symObjAddr: 0x8B10, symBinAddr: 0x10000A668, symSize: 0x28 }
  - { offsetInCU: 0x1576A, offset: 0x1576A, size: 0x8, addend: 0x0, symName: __ZNKSt3__117__compressed_pairIPPP8dag_nodeRNS_9allocatorIS3_EEE5firstB8ue170006Ev, symObjAddr: 0x8B38, symBinAddr: 0x10000A690, symSize: 0x24 }
  - { offsetInCU: 0x15790, offset: 0x15790, size: 0x8, addend: 0x0, symName: __ZNSt3__19allocatorIP8dag_nodeE9constructB8ue170006IS2_JRKS2_EEEvPT_DpOT0_, symObjAddr: 0x8B5C, symBinAddr: 0x10000A6B4, symSize: 0x28 }
  - { offsetInCU: 0x157E6, offset: 0x157E6, size: 0x8, addend: 0x0, symName: __ZNSt3__15dequeIP8dag_nodeNS_9allocatorIS2_EEE5frontEv, symObjAddr: 0x8B84, symBinAddr: 0x10000A6DC, symSize: 0x50 }
  - { offsetInCU: 0x1580E, offset: 0x1580E, size: 0x8, addend: 0x0, symName: __ZNSt3__15dequeIP8dag_nodeNS_9allocatorIS2_EEE9pop_frontEv, symObjAddr: 0x8BD4, symBinAddr: 0x10000A72C, symSize: 0xD4 }
  - { offsetInCU: 0x15863, offset: 0x15863, size: 0x8, addend: 0x0, symName: __ZNKSt3__15dequeIP8dag_nodeNS_9allocatorIS2_EEE23__annotate_shrink_frontB8ue170006Emm, symObjAddr: 0x8CA8, symBinAddr: 0x10000A800, symSize: 0x70 }
  - { offsetInCU: 0x158A7, offset: 0x158A7, size: 0x8, addend: 0x0, symName: __ZNSt3__15dequeIP8dag_nodeNS_9allocatorIS2_EEE26__maybe_remove_front_spareB8ue170006Eb, symObjAddr: 0x8D18, symBinAddr: 0x10000A870, symSize: 0xEC }
  - { offsetInCU: 0x158DC, offset: 0x158DC, size: 0x8, addend: 0x0, symName: __ZNKSt3__15dequeIP8dag_nodeNS_9allocatorIS2_EEE20__front_spare_blocksB8ue170006Ev, symObjAddr: 0x8E04, symBinAddr: 0x10000A95C, symSize: 0x2C }
  - { offsetInCU: 0x15902, offset: 0x15902, size: 0x8, addend: 0x0, symName: __ZNSt3__16vectorIbNS_9allocatorIbEEE10__make_refB8ue170006Em, symObjAddr: 0x8E30, symBinAddr: 0x10000A988, symSize: 0x60 }
  - { offsetInCU: 0x15937, offset: 0x15937, size: 0x8, addend: 0x0, symName: __ZNSt3__115__bit_referenceINS_6vectorIbNS_9allocatorIbEEEELb1EEC1B8ue170006EPmm, symObjAddr: 0x8E90, symBinAddr: 0x10000A9E8, symSize: 0x3C }
  - { offsetInCU: 0x1597D, offset: 0x1597D, size: 0x8, addend: 0x0, symName: __ZNSt3__115__bit_referenceINS_6vectorIbNS_9allocatorIbEEEELb1EEC2B8ue170006EPmm, symObjAddr: 0x8ECC, symBinAddr: 0x10000AA24, symSize: 0x2C }
  - { offsetInCU: 0x159C3, offset: 0x159C3, size: 0x8, addend: 0x0, symName: __ZNSt3__111char_traitsIcE6lengthB8ue170006EPKc, symObjAddr: 0x90EC, symBinAddr: 0x10000AC44, symSize: 0x48 }
  - { offsetInCU: 0x15A04, offset: 0x15A04, size: 0x8, addend: 0x0, symName: __ZNKSt3__113basic_ostreamIcNS_11char_traitsIcEEE6sentrycvbB8ue170006Ev, symObjAddr: 0x9134, symBinAddr: 0x10000AC8C, symSize: 0x1C }
  - { offsetInCU: 0x15A2A, offset: 0x15A2A, size: 0x8, addend: 0x0, symName: __ZNSt3__119ostreambuf_iteratorIcNS_11char_traitsIcEEEC1B8ue170006ERNS_13basic_ostreamIcS2_EE, symObjAddr: 0x9398, symBinAddr: 0x10000AEF0, symSize: 0x34 }
  - { offsetInCU: 0x15A62, offset: 0x15A62, size: 0x8, addend: 0x0, symName: __ZNKSt3__18ios_base5flagsB8ue170006Ev, symObjAddr: 0x93CC, symBinAddr: 0x10000AF24, symSize: 0x18 }
  - { offsetInCU: 0x15A8A, offset: 0x15A8A, size: 0x8, addend: 0x0, symName: __ZNKSt3__19basic_iosIcNS_11char_traitsIcEEE4fillB8ue170006Ev, symObjAddr: 0x93E4, symBinAddr: 0x10000AF3C, symSize: 0x64 }
  - { offsetInCU: 0x15AB2, offset: 0x15AB2, size: 0x8, addend: 0x0, symName: __ZNKSt3__119ostreambuf_iteratorIcNS_11char_traitsIcEEE6failedB8ue170006Ev, symObjAddr: 0x9448, symBinAddr: 0x10000AFA0, symSize: 0x24 }
  - { offsetInCU: 0x15AD8, offset: 0x15AD8, size: 0x8, addend: 0x0, symName: __ZNSt3__19basic_iosIcNS_11char_traitsIcEEE8setstateB8ue170006Ej, symObjAddr: 0x946C, symBinAddr: 0x10000AFC4, symSize: 0x2C }
  - { offsetInCU: 0x15B0D, offset: 0x15B0D, size: 0x8, addend: 0x0, symName: __ZNKSt3__18ios_base5widthB8ue170006Ev, symObjAddr: 0x9498, symBinAddr: 0x10000AFF0, symSize: 0x18 }
  - { offsetInCU: 0x15B35, offset: 0x15B35, size: 0x8, addend: 0x0, symName: __ZNSt3__115basic_streambufIcNS_11char_traitsIcEEE5sputnB8ue170006EPKcl, symObjAddr: 0x94B0, symBinAddr: 0x10000B008, symSize: 0x3C }
  - { offsetInCU: 0x15B77, offset: 0x15B77, size: 0x8, addend: 0x0, symName: __ZNSt3__112basic_stringIcNS_11char_traitsIcEENS_9allocatorIcEEEC1B8ue170006Emc, symObjAddr: 0x94EC, symBinAddr: 0x10000B044, symSize: 0x3C }
  - { offsetInCU: 0x15BBF, offset: 0x15BBF, size: 0x8, addend: 0x0, symName: __ZNKSt3__112basic_stringIcNS_11char_traitsIcEENS_9allocatorIcEEE4dataB8ue170006Ev, symObjAddr: 0x9528, symBinAddr: 0x10000B080, symSize: 0x28 }
  - { offsetInCU: 0x15BE5, offset: 0x15BE5, size: 0x8, addend: 0x0, symName: __ZNSt3__18ios_base5widthB8ue170006El, symObjAddr: 0x9550, symBinAddr: 0x10000B0A8, symSize: 0x2C }
  - { offsetInCU: 0x15C2B, offset: 0x15C2B, size: 0x8, addend: 0x0, symName: __ZNSt3__112basic_stringIcNS_11char_traitsIcEENS_9allocatorIcEEEC2B8ue170006Emc, symObjAddr: 0x957C, symBinAddr: 0x10000B0D4, symSize: 0x4C }
  - { offsetInCU: 0x15C73, offset: 0x15C73, size: 0x8, addend: 0x0, symName: __ZNSt3__117__compressed_pairINS_12basic_stringIcNS_11char_traitsIcEENS_9allocatorIcEEE5__repES5_EC1B8ue170006INS_18__default_init_tagESA_EEOT_OT0_, symObjAddr: 0x95C8, symBinAddr: 0x10000B120, symSize: 0x3C }
  - { offsetInCU: 0x15CCB, offset: 0x15CCB, size: 0x8, addend: 0x0, symName: __ZNSt3__117__compressed_pairINS_12basic_stringIcNS_11char_traitsIcEENS_9allocatorIcEEE5__repES5_EC2B8ue170006INS_18__default_init_tagESA_EEOT_OT0_, symObjAddr: 0x9604, symBinAddr: 0x10000B15C, symSize: 0x3C }
  - { offsetInCU: 0x15D23, offset: 0x15D23, size: 0x8, addend: 0x0, symName: __ZNSt3__122__compressed_pair_elemINS_12basic_stringIcNS_11char_traitsIcEENS_9allocatorIcEEE5__repELi0ELb0EEC2B8ue170006ENS_18__default_init_tagE, symObjAddr: 0x9640, symBinAddr: 0x10000B198, symSize: 0x14 }
  - { offsetInCU: 0x15D57, offset: 0x15D57, size: 0x8, addend: 0x0, symName: __ZNSt3__122__compressed_pair_elemINS_9allocatorIcEELi1ELb1EEC2B8ue170006ENS_18__default_init_tagE, symObjAddr: 0x9654, symBinAddr: 0x10000B1AC, symSize: 0x2C }
  - { offsetInCU: 0x15D8B, offset: 0x15D8B, size: 0x8, addend: 0x0, symName: __ZNSt3__19allocatorIcEC2B8ue170006Ev, symObjAddr: 0x9680, symBinAddr: 0x10000B1D8, symSize: 0x2C }
  - { offsetInCU: 0x15DB5, offset: 0x15DB5, size: 0x8, addend: 0x0, symName: __ZNSt3__116__non_trivial_ifILb1ENS_9allocatorIcEEEC2B8ue170006Ev, symObjAddr: 0x96AC, symBinAddr: 0x10000B204, symSize: 0x14 }
  - { offsetInCU: 0x15DDF, offset: 0x15DDF, size: 0x8, addend: 0x0, symName: __ZNKSt3__112basic_stringIcNS_11char_traitsIcEENS_9allocatorIcEEE13__get_pointerB8ue170006Ev, symObjAddr: 0x96D4, symBinAddr: 0x10000B22C, symSize: 0x54 }
  - { offsetInCU: 0x15E05, offset: 0x15E05, size: 0x8, addend: 0x0, symName: __ZNKSt3__112basic_stringIcNS_11char_traitsIcEENS_9allocatorIcEEE9__is_longB8ue170006Ev, symObjAddr: 0x9728, symBinAddr: 0x10000B280, symSize: 0x74 }
  - { offsetInCU: 0x15E2B, offset: 0x15E2B, size: 0x8, addend: 0x0, symName: __ZNKSt3__112basic_stringIcNS_11char_traitsIcEENS_9allocatorIcEEE18__get_long_pointerB8ue170006Ev, symObjAddr: 0x979C, symBinAddr: 0x10000B2F4, symSize: 0x28 }
  - { offsetInCU: 0x15E51, offset: 0x15E51, size: 0x8, addend: 0x0, symName: __ZNKSt3__112basic_stringIcNS_11char_traitsIcEENS_9allocatorIcEEE19__get_short_pointerB8ue170006Ev, symObjAddr: 0x97C4, symBinAddr: 0x10000B31C, symSize: 0x28 }
  - { offsetInCU: 0x15E77, offset: 0x15E77, size: 0x8, addend: 0x0, symName: __ZNKSt3__117__compressed_pairINS_12basic_stringIcNS_11char_traitsIcEENS_9allocatorIcEEE5__repES5_E5firstB8ue170006Ev, symObjAddr: 0x97EC, symBinAddr: 0x10000B344, symSize: 0x24 }
  - { offsetInCU: 0x15E9D, offset: 0x15E9D, size: 0x8, addend: 0x0, symName: __ZNKSt3__122__compressed_pair_elemINS_12basic_stringIcNS_11char_traitsIcEENS_9allocatorIcEEE5__repELi0ELb0EE5__getB8ue170006Ev, symObjAddr: 0x9810, symBinAddr: 0x10000B368, symSize: 0x14 }
  - { offsetInCU: 0x15EC3, offset: 0x15EC3, size: 0x8, addend: 0x0, symName: __ZNSt3__114pointer_traitsIPKcE10pointer_toB8ue170006ERS1_, symObjAddr: 0x9824, symBinAddr: 0x10000B37C, symSize: 0x14 }
  - { offsetInCU: 0x15EE6, offset: 0x15EE6, size: 0x8, addend: 0x0, symName: __ZNSt3__119ostreambuf_iteratorIcNS_11char_traitsIcEEEC2B8ue170006ERNS_13basic_ostreamIcS2_EE, symObjAddr: 0x9838, symBinAddr: 0x10000B390, symSize: 0x68 }
  - { offsetInCU: 0x15F1E, offset: 0x15F1E, size: 0x8, addend: 0x0, symName: __ZNKSt3__19basic_iosIcNS_11char_traitsIcEEE5rdbufB8ue170006Ev, symObjAddr: 0x98A0, symBinAddr: 0x10000B3F8, symSize: 0x24 }
  - { offsetInCU: 0x15F46, offset: 0x15F46, size: 0x8, addend: 0x0, symName: __ZNKSt3__18ios_base5rdbufB8ue170006Ev, symObjAddr: 0x98C4, symBinAddr: 0x10000B41C, symSize: 0x18 }
  - { offsetInCU: 0x15F6C, offset: 0x15F6C, size: 0x8, addend: 0x0, symName: __ZNSt3__111char_traitsIcE11eq_int_typeB8ue170006Eii, symObjAddr: 0x98DC, symBinAddr: 0x10000B434, symSize: 0x28 }
  - { offsetInCU: 0x15F9F, offset: 0x15F9F, size: 0x8, addend: 0x0, symName: __ZNSt3__111char_traitsIcE3eofB8ue170006Ev, symObjAddr: 0x9904, symBinAddr: 0x10000B45C, symSize: 0x8 }
  - { offsetInCU: 0x15FB3, offset: 0x15FB3, size: 0x8, addend: 0x0, symName: __ZNKSt3__19basic_iosIcNS_11char_traitsIcEEE5widenB8ue170006Ec, symObjAddr: 0x990C, symBinAddr: 0x10000B464, symSize: 0x8C }
  - { offsetInCU: 0x1601C, offset: 0x1601C, size: 0x8, addend: 0x0, symName: __ZNKSt3__15ctypeIcE5widenB8ue170006Ec, symObjAddr: 0x99C4, symBinAddr: 0x10000B51C, symSize: 0x38 }
  - { offsetInCU: 0x16051, offset: 0x16051, size: 0x8, addend: 0x0, symName: __ZNSt3__18ios_base8setstateB8ue170006Ej, symObjAddr: 0x99FC, symBinAddr: 0x10000B554, symSize: 0x34 }
  - { offsetInCU: 0x16088, offset: 0x16088, size: 0x8, addend: 0x0, symName: __ZNKSt3__16__lessIvvEclB8ue170006IiiEEbRKT_RKT0_, symObjAddr: 0x9AA8, symBinAddr: 0x10000B600, symSize: 0x34 }
  - { offsetInCU: 0x160DC, offset: 0x160DC, size: 0x8, addend: 0x0, symName: __ZNSt3__15dequeIiNS_9allocatorIiEEE4backEv, symObjAddr: 0x9ADC, symBinAddr: 0x10000B634, symSize: 0x68 }
  - { offsetInCU: 0x16113, offset: 0x16113, size: 0x8, addend: 0x0, symName: __ZNSt3__15dequeIiNS_9allocatorIiEEE8pop_backEv, symObjAddr: 0x9B44, symBinAddr: 0x10000B69C, symSize: 0xE0 }
  - { offsetInCU: 0x16177, offset: 0x16177, size: 0x8, addend: 0x0, symName: __ZNKSt3__15dequeIiNS_9allocatorIiEEE22__annotate_shrink_backB8ue170006Emm, symObjAddr: 0x9C24, symBinAddr: 0x10000B77C, symSize: 0x60 }
  - { offsetInCU: 0x161BB, offset: 0x161BB, size: 0x8, addend: 0x0, symName: __ZNSt3__15dequeIiNS_9allocatorIiEEE25__maybe_remove_back_spareB8ue170006Eb, symObjAddr: 0x9C84, symBinAddr: 0x10000B7DC, symSize: 0xE8 }
  - { offsetInCU: 0x161F0, offset: 0x161F0, size: 0x8, addend: 0x0, symName: __ZNKSt3__15dequeIiNS_9allocatorIiEEE19__back_spare_blocksB8ue170006Ev, symObjAddr: 0x9D6C, symBinAddr: 0x10000B8C4, symSize: 0x2C }
  - { offsetInCU: 0x16216, offset: 0x16216, size: 0x8, addend: 0x0, symName: __ZNSt3__114__split_bufferIPiNS_9allocatorIS1_EEE4backB8ue170006Ev, symObjAddr: 0x9D98, symBinAddr: 0x10000B8F0, symSize: 0x1C }
  - { offsetInCU: 0x1623C, offset: 0x1623C, size: 0x8, addend: 0x0, symName: __ZNSt3__114__split_bufferIPiNS_9allocatorIS1_EEE8pop_backB8ue170006Ev, symObjAddr: 0x9DB4, symBinAddr: 0x10000B90C, symSize: 0x2C }
  - { offsetInCU: 0x16262, offset: 0x16262, size: 0x8, addend: 0x0, symName: __ZNKSt3__15dequeIiNS_9allocatorIiEEE12__back_spareB8ue170006Ev, symObjAddr: 0x9DE0, symBinAddr: 0x10000B938, symSize: 0x54 }
  - { offsetInCU: 0x16288, offset: 0x16288, size: 0x8, addend: 0x0, symName: __ZNKSt3__15dequeIiNS_9allocatorIiEEE10__capacityB8ue170006Ev, symObjAddr: 0x9E34, symBinAddr: 0x10000B98C, symSize: 0x60 }
  - { offsetInCU: 0x162AE, offset: 0x162AE, size: 0x8, addend: 0x0, symName: __ZNSt3__15dequeIiNS_9allocatorIiEEE9push_backERKi, symObjAddr: 0x9E94, symBinAddr: 0x10000B9EC, symSize: 0xAC }
  - { offsetInCU: 0x162F4, offset: 0x162F4, size: 0x8, addend: 0x0, symName: __ZNSt3__15dequeIiNS_9allocatorIiEEE19__add_back_capacityEv, symObjAddr: 0x9F40, symBinAddr: 0x10000BA98, symSize: 0x364 }
  - { offsetInCU: 0x163A9, offset: 0x163A9, size: 0x8, addend: 0x0, symName: __ZNKSt3__15dequeIiNS_9allocatorIiEEE24__annotate_increase_backB8ue170006Em, symObjAddr: 0xA2A4, symBinAddr: 0x10000BDFC, symSize: 0x7C }
  - { offsetInCU: 0x163DE, offset: 0x163DE, size: 0x8, addend: 0x0, symName: __ZNSt3__116allocator_traitsINS_9allocatorIiEEE9constructB8ue170006IiJRKiEvEEvRS2_PT_DpOT0_, symObjAddr: 0xA320, symBinAddr: 0x10000BE78, symSize: 0x34 }
  - { offsetInCU: 0x16435, offset: 0x16435, size: 0x8, addend: 0x0, symName: __ZNKSt3__15dequeIiNS_9allocatorIiEEE13__front_spareB8ue170006Ev, symObjAddr: 0xA354, symBinAddr: 0x10000BEAC, symSize: 0x18 }
  - { offsetInCU: 0x1645B, offset: 0x1645B, size: 0x8, addend: 0x0, symName: __ZNSt3__114__split_bufferIPiNS_9allocatorIS1_EEE9push_backB8ue170006ERKS1_, symObjAddr: 0xA36C, symBinAddr: 0x10000BEC4, symSize: 0x270 }
  - { offsetInCU: 0x164D3, offset: 0x164D3, size: 0x8, addend: 0x0, symName: __ZNKSt3__114__split_bufferIPiNS_9allocatorIS1_EEE12__back_spareB8ue170006Ev, symObjAddr: 0xA5DC, symBinAddr: 0x10000C134, symSize: 0x40 }
  - { offsetInCU: 0x164F9, offset: 0x164F9, size: 0x8, addend: 0x0, symName: __ZNSt3__114__split_bufferIPiNS_9allocatorIS1_EEE9push_backEOS1_, symObjAddr: 0xA61C, symBinAddr: 0x10000C174, symSize: 0x270 }
  - { offsetInCU: 0x16571, offset: 0x16571, size: 0x8, addend: 0x0, symName: __ZNSt3__116allocator_traitsINS_9allocatorIiEEE8allocateB8ue170006ERS2_m, symObjAddr: 0xA88C, symBinAddr: 0x10000C3E4, symSize: 0x2C }
  - { offsetInCU: 0x165A4, offset: 0x165A4, size: 0x8, addend: 0x0, symName: __ZNSt3__114__split_bufferIPiNS_9allocatorIS1_EEE10push_frontEOS1_, symObjAddr: 0xA8B8, symBinAddr: 0x10000C410, symSize: 0x26C }
  - { offsetInCU: 0x1661C, offset: 0x1661C, size: 0x8, addend: 0x0, symName: __ZNSt3__114__split_bufferIPiRNS_9allocatorIS1_EEEC1EmmS4_, symObjAddr: 0xAB24, symBinAddr: 0x10000C67C, symSize: 0x44 }
  - { offsetInCU: 0x16677, offset: 0x16677, size: 0x8, addend: 0x0, symName: __ZNSt3__122__allocator_destructorINS_9allocatorIiEEEC1B8ue170006ERS2_m, symObjAddr: 0xAB68, symBinAddr: 0x10000C6C0, symSize: 0x3C }
  - { offsetInCU: 0x1673F, offset: 0x1673F, size: 0x8, addend: 0x0, symName: __ZNSt3__110unique_ptrIPiNS_22__allocator_destructorINS_9allocatorIiEEEEEC1B8ue170006ILb1EvEES1_NS_16__dependent_typeINS_27__unique_ptr_deleter_sfinaeIS5_EEXT_EE20__good_rval_ref_typeE, symObjAddr: 0xABA4, symBinAddr: 0x10000C6FC, symSize: 0x3C }
  - { offsetInCU: 0x16790, offset: 0x16790, size: 0x8, addend: 0x0, symName: __ZNSt3__114__split_bufferIPiRNS_9allocatorIS1_EEE9push_backEOS1_, symObjAddr: 0xABE0, symBinAddr: 0x10000C738, symSize: 0x270 }
  - { offsetInCU: 0x16808, offset: 0x16808, size: 0x8, addend: 0x0, symName: __ZNKSt3__110unique_ptrIPiNS_22__allocator_destructorINS_9allocatorIiEEEEE3getB8ue170006Ev, symObjAddr: 0xAE50, symBinAddr: 0x10000C9A8, symSize: 0x28 }
  - { offsetInCU: 0x1682E, offset: 0x1682E, size: 0x8, addend: 0x0, symName: __ZNSt3__110unique_ptrIPiNS_22__allocator_destructorINS_9allocatorIiEEEEE7releaseB8ue170006Ev, symObjAddr: 0xAE78, symBinAddr: 0x10000C9D0, symSize: 0x44 }
  - { offsetInCU: 0x16863, offset: 0x16863, size: 0x8, addend: 0x0, symName: __ZNSt3__114__split_bufferIPiRNS_9allocatorIS1_EEE10push_frontERKS1_, symObjAddr: 0xAEBC, symBinAddr: 0x10000CA14, symSize: 0x26C }
  - { offsetInCU: 0x168DB, offset: 0x168DB, size: 0x8, addend: 0x0, symName: __ZNSt3__114__split_bufferIPiNS_9allocatorIS1_EEE9__end_capB8ue170006Ev, symObjAddr: 0xB164, symBinAddr: 0x10000CCBC, symSize: 0x28 }
  - { offsetInCU: 0x16901, offset: 0x16901, size: 0x8, addend: 0x0, symName: __ZNSt3__114__split_bufferIPiRNS_9allocatorIS1_EEE9__end_capB8ue170006Ev, symObjAddr: 0xB18C, symBinAddr: 0x10000CCE4, symSize: 0x28 }
  - { offsetInCU: 0x16927, offset: 0x16927, size: 0x8, addend: 0x0, symName: __ZNSt3__110unique_ptrIPiNS_22__allocator_destructorINS_9allocatorIiEEEEED1B8ue170006Ev, symObjAddr: 0xB1B4, symBinAddr: 0x10000CD0C, symSize: 0x2C }
  - { offsetInCU: 0x16951, offset: 0x16951, size: 0x8, addend: 0x0, symName: __ZNSt3__114__split_bufferIPiRNS_9allocatorIS1_EEED1Ev, symObjAddr: 0xB1E0, symBinAddr: 0x10000CD38, symSize: 0x2C }
  - { offsetInCU: 0x1697D, offset: 0x1697D, size: 0x8, addend: 0x0, symName: __ZNSt3__114__split_bufferIPiRNS_9allocatorIS1_EEE18__construct_at_endINS_13move_iteratorIPS1_EEEENS_9enable_ifIXsr31__has_forward_iterator_categoryIT_EE5valueEvE4typeESB_SB_, symObjAddr: 0xB24C, symBinAddr: 0x10000CDA4, symSize: 0x60 }
  - { offsetInCU: 0x169CA, offset: 0x169CA, size: 0x8, addend: 0x0, symName: __ZNSt3__113move_iteratorIPPiEC1B8ue170006ES2_, symObjAddr: 0xB2AC, symBinAddr: 0x10000CE04, symSize: 0x34 }
  - { offsetInCU: 0x16A02, offset: 0x16A02, size: 0x8, addend: 0x0, symName: __ZNSt3__116allocator_traitsINS_9allocatorIPiEEE9constructB8ue170006IS2_JRKS2_EvEEvRS3_PT_DpOT0_, symObjAddr: 0xB2E0, symBinAddr: 0x10000CE38, symSize: 0x34 }
  - { offsetInCU: 0x16A72, offset: 0x16A72, size: 0x8, addend: 0x0, symName: __ZNKSt3__114__move_trivialclB8ue170006IPiS2_Li0EEENS_4pairIPT_PT0_EES5_S5_S7_, symObjAddr: 0xB4B0, symBinAddr: 0x10000D008, symSize: 0x48 }
  - { offsetInCU: 0x16ADA, offset: 0x16ADA, size: 0x8, addend: 0x0, symName: __ZNSt3__14pairIPPiS2_EC1B8ue170006ERKS2_S5_, symObjAddr: 0xB728, symBinAddr: 0x10000D280, symSize: 0x3C }
  - { offsetInCU: 0x16B20, offset: 0x16B20, size: 0x8, addend: 0x0, symName: __ZNSt3__14pairIPPiS2_EC2B8ue170006ERKS2_S5_, symObjAddr: 0xB764, symBinAddr: 0x10000D2BC, symSize: 0x34 }
  - { offsetInCU: 0x16B66, offset: 0x16B66, size: 0x8, addend: 0x0, symName: __ZNSt3__118__unwrap_iter_implIPPiLb1EE8__unwrapB8ue170006ES2_, symObjAddr: 0xB798, symBinAddr: 0x10000D2F0, symSize: 0x24 }
  - { offsetInCU: 0x16B89, offset: 0x16B89, size: 0x8, addend: 0x0, symName: __ZNSt3__118__unwrap_iter_implIPPiLb1EE8__rewrapB8ue170006ES2_S2_, symObjAddr: 0xB7BC, symBinAddr: 0x10000D314, symSize: 0x50 }
  - { offsetInCU: 0x16BBA, offset: 0x16BBA, size: 0x8, addend: 0x0, symName: __ZNSt3__114__split_bufferIPiRNS_9allocatorIS1_EEE28__construct_at_end_with_sizeINS_13move_iteratorIPS1_EEEEvT_m, symObjAddr: 0xB80C, symBinAddr: 0x10000D364, symSize: 0xE4 }
  - { offsetInCU: 0x16C20, offset: 0x16C20, size: 0x8, addend: 0x0, symName: __ZNSt3__114__split_bufferIPiRNS_9allocatorIS1_EEE21_ConstructTransactionC1B8ue170006EPPS1_m, symObjAddr: 0xB92C, symBinAddr: 0x10000D484, symSize: 0x3C }
  - { offsetInCU: 0x16C66, offset: 0x16C66, size: 0x8, addend: 0x0, symName: __ZNSt3__116allocator_traitsINS_9allocatorIPiEEE9constructB8ue170006IS2_JS2_EvEEvRS3_PT_DpOT0_, symObjAddr: 0xB968, symBinAddr: 0x10000D4C0, symSize: 0x34 }
  - { offsetInCU: 0x16CBD, offset: 0x16CBD, size: 0x8, addend: 0x0, symName: __ZNSt3__114__split_bufferIPiRNS_9allocatorIS1_EEE7__allocB8ue170006Ev, symObjAddr: 0xB99C, symBinAddr: 0x10000D4F4, symSize: 0x28 }
  - { offsetInCU: 0x16CE3, offset: 0x16CE3, size: 0x8, addend: 0x0, symName: __ZNKSt3__113move_iteratorIPPiEdeB8ue170006Ev, symObjAddr: 0xB9C4, symBinAddr: 0x10000D51C, symSize: 0x18 }
  - { offsetInCU: 0x16D09, offset: 0x16D09, size: 0x8, addend: 0x0, symName: __ZNSt3__113move_iteratorIPPiEppB8ue170006Ev, symObjAddr: 0xB9DC, symBinAddr: 0x10000D534, symSize: 0x20 }
  - { offsetInCU: 0x16D2F, offset: 0x16D2F, size: 0x8, addend: 0x0, symName: __ZNSt3__114__split_bufferIPiRNS_9allocatorIS1_EEE21_ConstructTransactionD1B8ue170006Ev, symObjAddr: 0xB9FC, symBinAddr: 0x10000D554, symSize: 0x2C }
  - { offsetInCU: 0x16D59, offset: 0x16D59, size: 0x8, addend: 0x0, symName: __ZNSt3__114__split_bufferIPiRNS_9allocatorIS1_EEE21_ConstructTransactionC2B8ue170006EPPS1_m, symObjAddr: 0xBA28, symBinAddr: 0x10000D580, symSize: 0x44 }
  - { offsetInCU: 0x16D9F, offset: 0x16D9F, size: 0x8, addend: 0x0, symName: __ZNSt3__19allocatorIPiE9constructB8ue170006IS1_JS1_EEEvPT_DpOT0_, symObjAddr: 0xBA6C, symBinAddr: 0x10000D5C4, symSize: 0x28 }
  - { offsetInCU: 0x16DF5, offset: 0x16DF5, size: 0x8, addend: 0x0, symName: __ZNSt3__117__compressed_pairIPPiRNS_9allocatorIS1_EEE6secondB8ue170006Ev, symObjAddr: 0xBA94, symBinAddr: 0x10000D5EC, symSize: 0x28 }
  - { offsetInCU: 0x16E1B, offset: 0x16E1B, size: 0x8, addend: 0x0, symName: __ZNSt3__122__compressed_pair_elemIRNS_9allocatorIPiEELi1ELb0EE5__getB8ue170006Ev, symObjAddr: 0xBABC, symBinAddr: 0x10000D614, symSize: 0x18 }
  - { offsetInCU: 0x16E41, offset: 0x16E41, size: 0x8, addend: 0x0, symName: __ZNSt3__114__split_bufferIPiRNS_9allocatorIS1_EEE21_ConstructTransactionD2B8ue170006Ev, symObjAddr: 0xBAD4, symBinAddr: 0x10000D62C, symSize: 0x20 }
  - { offsetInCU: 0x16E6B, offset: 0x16E6B, size: 0x8, addend: 0x0, symName: __ZNKSt3__113move_iteratorIPPiE4baseB8ue170006Ev, symObjAddr: 0xBB6C, symBinAddr: 0x10000D6C4, symSize: 0x18 }
  - { offsetInCU: 0x16E91, offset: 0x16E91, size: 0x8, addend: 0x0, symName: __ZNSt3__113move_iteratorIPPiEC2B8ue170006ES2_, symObjAddr: 0xBB84, symBinAddr: 0x10000D6DC, symSize: 0x20 }
  - { offsetInCU: 0x16EC9, offset: 0x16EC9, size: 0x8, addend: 0x0, symName: __ZNSt3__19allocatorIPiE9constructB8ue170006IS1_JRKS1_EEEvPT_DpOT0_, symObjAddr: 0xBBA4, symBinAddr: 0x10000D6FC, symSize: 0x28 }
  - { offsetInCU: 0x16F1F, offset: 0x16F1F, size: 0x8, addend: 0x0, symName: __ZNSt3__19allocatorIiE8allocateB8ue170006Em, symObjAddr: 0xBBCC, symBinAddr: 0x10000D724, symSize: 0x84 }
  - { offsetInCU: 0x16F5D, offset: 0x16F5D, size: 0x8, addend: 0x0, symName: __ZNSt3__116allocator_traitsINS_9allocatorIiEEE8max_sizeB8ue170006IS2_vEEmRKS2_, symObjAddr: 0xBC50, symBinAddr: 0x10000D7A8, symSize: 0x24 }
  - { offsetInCU: 0x16F8B, offset: 0x16F8B, size: 0x8, addend: 0x0, symName: __ZNKSt3__19allocatorIiE8max_sizeB8ue170006Ev, symObjAddr: 0xBC74, symBinAddr: 0x10000D7CC, symSize: 0x14 }
  - { offsetInCU: 0x16FB1, offset: 0x16FB1, size: 0x8, addend: 0x0, symName: __ZNKSt3__123__move_backward_trivialclB8ue170006IPiS2_Li0EEENS_4pairIPT_PT0_EES5_S5_S7_, symObjAddr: 0xBE04, symBinAddr: 0x10000D95C, symSize: 0x48 }
  - { offsetInCU: 0x17019, offset: 0x17019, size: 0x8, addend: 0x0, symName: __ZNSt3__114__split_bufferIPiRNS_9allocatorIS1_EEEC2EmmS4_, symObjAddr: 0xBF14, symBinAddr: 0x10000DA6C, symSize: 0xD4 }
  - { offsetInCU: 0x1708C, offset: 0x1708C, size: 0x8, addend: 0x0, symName: __ZNSt3__117__compressed_pairIPPiRNS_9allocatorIS1_EEEC1B8ue170006IDnS5_EEOT_OT0_, symObjAddr: 0xBFE8, symBinAddr: 0x10000DB40, symSize: 0x3C }
  - { offsetInCU: 0x170E4, offset: 0x170E4, size: 0x8, addend: 0x0, symName: __ZNSt3__117__compressed_pairIPPiRNS_9allocatorIS1_EEEC2B8ue170006IDnS5_EEOT_OT0_, symObjAddr: 0xC064, symBinAddr: 0x10000DBBC, symSize: 0x48 }
  - { offsetInCU: 0x1713C, offset: 0x1713C, size: 0x8, addend: 0x0, symName: __ZNSt3__122__compressed_pair_elemIRNS_9allocatorIPiEELi1ELb0EEC2B8ue170006IS4_vEEOT_, symObjAddr: 0xC0AC, symBinAddr: 0x10000DC04, symSize: 0x20 }
  - { offsetInCU: 0x1717E, offset: 0x1717E, size: 0x8, addend: 0x0, symName: __ZNSt3__19allocatorIPiE8allocateB8ue170006Em, symObjAddr: 0xC0CC, symBinAddr: 0x10000DC24, symSize: 0x84 }
  - { offsetInCU: 0x171BC, offset: 0x171BC, size: 0x8, addend: 0x0, symName: __ZNSt3__116allocator_traitsINS_9allocatorIPiEEE8max_sizeB8ue170006IS3_vEEmRKS3_, symObjAddr: 0xC150, symBinAddr: 0x10000DCA8, symSize: 0x24 }
  - { offsetInCU: 0x171EA, offset: 0x171EA, size: 0x8, addend: 0x0, symName: __ZNKSt3__19allocatorIPiE8max_sizeB8ue170006Ev, symObjAddr: 0xC174, symBinAddr: 0x10000DCCC, symSize: 0x14 }
  - { offsetInCU: 0x17210, offset: 0x17210, size: 0x8, addend: 0x0, symName: __ZNSt3__122__allocator_destructorINS_9allocatorIiEEEC2B8ue170006ERS2_m, symObjAddr: 0xC188, symBinAddr: 0x10000DCE0, symSize: 0x2C }
  - { offsetInCU: 0x17256, offset: 0x17256, size: 0x8, addend: 0x0, symName: __ZNSt3__110unique_ptrIPiNS_22__allocator_destructorINS_9allocatorIiEEEEEC2B8ue170006ILb1EvEES1_NS_16__dependent_typeINS_27__unique_ptr_deleter_sfinaeIS5_EEXT_EE20__good_rval_ref_typeE, symObjAddr: 0xC1B4, symBinAddr: 0x10000DD0C, symSize: 0x5C }
  - { offsetInCU: 0x172A7, offset: 0x172A7, size: 0x8, addend: 0x0, symName: __ZNSt3__117__compressed_pairIPiNS_22__allocator_destructorINS_9allocatorIiEEEEEC1B8ue170006IRS1_S5_EEOT_OT0_, symObjAddr: 0xC210, symBinAddr: 0x10000DD68, symSize: 0x3C }
  - { offsetInCU: 0x172FF, offset: 0x172FF, size: 0x8, addend: 0x0, symName: __ZNSt3__117__compressed_pairIPiNS_22__allocator_destructorINS_9allocatorIiEEEEEC2B8ue170006IRS1_S5_EEOT_OT0_, symObjAddr: 0xC24C, symBinAddr: 0x10000DDA4, symSize: 0x48 }
  - { offsetInCU: 0x17357, offset: 0x17357, size: 0x8, addend: 0x0, symName: __ZNSt3__122__compressed_pair_elemIPiLi0ELb0EEC2B8ue170006IRS1_vEEOT_, symObjAddr: 0xC294, symBinAddr: 0x10000DDEC, symSize: 0x24 }
  - { offsetInCU: 0x17399, offset: 0x17399, size: 0x8, addend: 0x0, symName: __ZNSt3__122__compressed_pair_elemINS_22__allocator_destructorINS_9allocatorIiEEEELi1ELb0EEC2B8ue170006IS4_vEEOT_, symObjAddr: 0xC2B8, symBinAddr: 0x10000DE10, symSize: 0x24 }
  - { offsetInCU: 0x173DB, offset: 0x173DB, size: 0x8, addend: 0x0, symName: __ZNKSt3__117__compressed_pairIPiNS_22__allocator_destructorINS_9allocatorIiEEEEE5firstB8ue170006Ev, symObjAddr: 0xC2DC, symBinAddr: 0x10000DE34, symSize: 0x24 }
  - { offsetInCU: 0x17401, offset: 0x17401, size: 0x8, addend: 0x0, symName: __ZNKSt3__122__compressed_pair_elemIPiLi0ELb0EE5__getB8ue170006Ev, symObjAddr: 0xC300, symBinAddr: 0x10000DE58, symSize: 0x14 }
  - { offsetInCU: 0x17427, offset: 0x17427, size: 0x8, addend: 0x0, symName: __ZNSt3__117__compressed_pairIPiNS_22__allocator_destructorINS_9allocatorIiEEEEE5firstB8ue170006Ev, symObjAddr: 0xC314, symBinAddr: 0x10000DE6C, symSize: 0x24 }
  - { offsetInCU: 0x1744D, offset: 0x1744D, size: 0x8, addend: 0x0, symName: __ZNSt3__122__compressed_pair_elemIPiLi0ELb0EE5__getB8ue170006Ev, symObjAddr: 0xC338, symBinAddr: 0x10000DE90, symSize: 0x14 }
  - { offsetInCU: 0x17473, offset: 0x17473, size: 0x8, addend: 0x0, symName: __ZNSt3__117__compressed_pairIPPiNS_9allocatorIS1_EEE5firstB8ue170006Ev, symObjAddr: 0xC34C, symBinAddr: 0x10000DEA4, symSize: 0x24 }
  - { offsetInCU: 0x17499, offset: 0x17499, size: 0x8, addend: 0x0, symName: __ZNSt3__122__compressed_pair_elemIPPiLi0ELb0EE5__getB8ue170006Ev, symObjAddr: 0xC370, symBinAddr: 0x10000DEC8, symSize: 0x14 }
  - { offsetInCU: 0x174BF, offset: 0x174BF, size: 0x8, addend: 0x0, symName: __ZNSt3__117__compressed_pairIPPiRNS_9allocatorIS1_EEE5firstB8ue170006Ev, symObjAddr: 0xC384, symBinAddr: 0x10000DEDC, symSize: 0x24 }
  - { offsetInCU: 0x174E5, offset: 0x174E5, size: 0x8, addend: 0x0, symName: __ZNSt3__110unique_ptrIPiNS_22__allocator_destructorINS_9allocatorIiEEEEED2B8ue170006Ev, symObjAddr: 0xC3A8, symBinAddr: 0x10000DF00, symSize: 0x30 }
  - { offsetInCU: 0x1750F, offset: 0x1750F, size: 0x8, addend: 0x0, symName: __ZNSt3__110unique_ptrIPiNS_22__allocator_destructorINS_9allocatorIiEEEEE5resetB8ue170006ES1_, symObjAddr: 0xC3D8, symBinAddr: 0x10000DF30, symSize: 0x78 }
  - { offsetInCU: 0x17553, offset: 0x17553, size: 0x8, addend: 0x0, symName: __ZNSt3__117__compressed_pairIPiNS_22__allocator_destructorINS_9allocatorIiEEEEE6secondB8ue170006Ev, symObjAddr: 0xC450, symBinAddr: 0x10000DFA8, symSize: 0x28 }
  - { offsetInCU: 0x17579, offset: 0x17579, size: 0x8, addend: 0x0, symName: __ZNSt3__122__allocator_destructorINS_9allocatorIiEEEclB8ue170006EPi, symObjAddr: 0xC478, symBinAddr: 0x10000DFD0, symSize: 0x34 }
  - { offsetInCU: 0x175AD, offset: 0x175AD, size: 0x8, addend: 0x0, symName: __ZNSt3__122__compressed_pair_elemINS_22__allocator_destructorINS_9allocatorIiEEEELi1ELb0EE5__getB8ue170006Ev, symObjAddr: 0xC4AC, symBinAddr: 0x10000E004, symSize: 0x14 }
  - { offsetInCU: 0x175D3, offset: 0x175D3, size: 0x8, addend: 0x0, symName: __ZNSt3__114__split_bufferIPiRNS_9allocatorIS1_EEED2Ev, symObjAddr: 0xC4C0, symBinAddr: 0x10000E018, symSize: 0x80 }
  - { offsetInCU: 0x175FF, offset: 0x175FF, size: 0x8, addend: 0x0, symName: __ZNSt3__114__split_bufferIPiRNS_9allocatorIS1_EEE5clearB8ue170006Ev, symObjAddr: 0xC540, symBinAddr: 0x10000E098, symSize: 0x28 }
  - { offsetInCU: 0x17625, offset: 0x17625, size: 0x8, addend: 0x0, symName: __ZNKSt3__114__split_bufferIPiRNS_9allocatorIS1_EEE8capacityB8ue170006Ev, symObjAddr: 0xC568, symBinAddr: 0x10000E0C0, symSize: 0x40 }
  - { offsetInCU: 0x1764B, offset: 0x1764B, size: 0x8, addend: 0x0, symName: __ZNSt3__114__split_bufferIPiRNS_9allocatorIS1_EEE17__destruct_at_endB8ue170006EPS1_, symObjAddr: 0xC5A8, symBinAddr: 0x10000E100, symSize: 0x2C }
  - { offsetInCU: 0x1767F, offset: 0x1767F, size: 0x8, addend: 0x0, symName: __ZNSt3__114__split_bufferIPiRNS_9allocatorIS1_EEE17__destruct_at_endB8ue170006EPS1_NS_17integral_constantIbLb0EEE, symObjAddr: 0xC5D4, symBinAddr: 0x10000E12C, symSize: 0x94 }
  - { offsetInCU: 0x176BF, offset: 0x176BF, size: 0x8, addend: 0x0, symName: __ZNKSt3__114__split_bufferIPiRNS_9allocatorIS1_EEE9__end_capB8ue170006Ev, symObjAddr: 0xC668, symBinAddr: 0x10000E1C0, symSize: 0x28 }
  - { offsetInCU: 0x176E5, offset: 0x176E5, size: 0x8, addend: 0x0, symName: __ZNKSt3__117__compressed_pairIPPiRNS_9allocatorIS1_EEE5firstB8ue170006Ev, symObjAddr: 0xC690, symBinAddr: 0x10000E1E8, symSize: 0x24 }
  - { offsetInCU: 0x1770B, offset: 0x1770B, size: 0x8, addend: 0x0, symName: __ZNSt3__19allocatorIiE9constructB8ue170006IiJRKiEEEvPT_DpOT0_, symObjAddr: 0xC6B4, symBinAddr: 0x10000E20C, symSize: 0x28 }
  - { offsetInCU: 0x17761, offset: 0x17761, size: 0x8, addend: 0x0, symName: __ZNSt3__112basic_stringIcNS_11char_traitsIcEENS_9allocatorIcEEEC2B8ue170006Ev, symObjAddr: 0xC6DC, symBinAddr: 0x10000E234, symSize: 0x3C }
  - { offsetInCU: 0x1778B, offset: 0x1778B, size: 0x8, addend: 0x0, symName: __ZNSt3__112basic_stringIcNS_11char_traitsIcEENS_9allocatorIcEEE14__default_initB8ue170006Ev, symObjAddr: 0xC718, symBinAddr: 0x10000E270, symSize: 0xB0 }
  - { offsetInCU: 0x177DD, offset: 0x177DD, size: 0x8, addend: 0x0, symName: __ZNSt3__117__compressed_pairINS_12basic_stringIcNS_11char_traitsIcEENS_9allocatorIcEEE5__repES5_E5firstB8ue170006Ev, symObjAddr: 0xC7C8, symBinAddr: 0x10000E320, symSize: 0x24 }
  - { offsetInCU: 0x17803, offset: 0x17803, size: 0x8, addend: 0x0, symName: __ZNSt3__112basic_stringIcNS_11char_traitsIcEENS_9allocatorIcEEE11__recommendB8ue170006Em, symObjAddr: 0xC7EC, symBinAddr: 0x10000E344, symSize: 0x9C }
  - { offsetInCU: 0x17836, offset: 0x17836, size: 0x8, addend: 0x0, symName: __ZNSt3__116allocator_traitsINS_9allocatorIcEEE8allocateB8ue170006ERS2_m, symObjAddr: 0xC888, symBinAddr: 0x10000E3E0, symSize: 0x2C }
  - { offsetInCU: 0x17869, offset: 0x17869, size: 0x8, addend: 0x0, symName: __ZNSt3__112basic_stringIcNS_11char_traitsIcEENS_9allocatorIcEEE7__allocB8ue170006Ev, symObjAddr: 0xC8B4, symBinAddr: 0x10000E40C, symSize: 0x24 }
  - { offsetInCU: 0x1788F, offset: 0x1788F, size: 0x8, addend: 0x0, symName: __ZNSt3__112basic_stringIcNS_11char_traitsIcEENS_9allocatorIcEEE16__begin_lifetimeB8ue170006EPcm, symObjAddr: 0xC8D8, symBinAddr: 0x10000E430, symSize: 0x14 }
  - { offsetInCU: 0x178C2, offset: 0x178C2, size: 0x8, addend: 0x0, symName: __ZNSt3__112basic_stringIcNS_11char_traitsIcEENS_9allocatorIcEEE18__set_long_pointerB8ue170006EPc, symObjAddr: 0xC8EC, symBinAddr: 0x10000E444, symSize: 0x38 }
  - { offsetInCU: 0x178F7, offset: 0x178F7, size: 0x8, addend: 0x0, symName: __ZNSt3__112basic_stringIcNS_11char_traitsIcEENS_9allocatorIcEEE14__set_long_capB8ue170006Em, symObjAddr: 0xC924, symBinAddr: 0x10000E47C, symSize: 0x70 }
  - { offsetInCU: 0x1792C, offset: 0x1792C, size: 0x8, addend: 0x0, symName: __ZNSt3__112basic_stringIcNS_11char_traitsIcEENS_9allocatorIcEEE15__set_long_sizeB8ue170006Em, symObjAddr: 0xC994, symBinAddr: 0x10000E4EC, symSize: 0x38 }
  - { offsetInCU: 0x17961, offset: 0x17961, size: 0x8, addend: 0x0, symName: __ZNSt3__122__compressed_pair_elemINS_12basic_stringIcNS_11char_traitsIcEENS_9allocatorIcEEE5__repELi0ELb0EE5__getB8ue170006Ev, symObjAddr: 0xC9CC, symBinAddr: 0x10000E524, symSize: 0x14 }
  - { offsetInCU: 0x17987, offset: 0x17987, size: 0x8, addend: 0x0, symName: __ZNSt3__112basic_stringIcNS_11char_traitsIcEENS_9allocatorIcEEE10__align_itB8ue170006ILm16EEEmm, symObjAddr: 0xC9E0, symBinAddr: 0x10000E538, symSize: 0x1C }
  - { offsetInCU: 0x179B5, offset: 0x179B5, size: 0x8, addend: 0x0, symName: __ZNSt3__19allocatorIcE8allocateB8ue170006Em, symObjAddr: 0xC9FC, symBinAddr: 0x10000E554, symSize: 0x84 }
  - { offsetInCU: 0x179F3, offset: 0x179F3, size: 0x8, addend: 0x0, symName: __ZNSt3__116allocator_traitsINS_9allocatorIcEEE8max_sizeB8ue170006IS2_vEEmRKS2_, symObjAddr: 0xCA80, symBinAddr: 0x10000E5D8, symSize: 0x24 }
  - { offsetInCU: 0x17A21, offset: 0x17A21, size: 0x8, addend: 0x0, symName: __ZNKSt3__19allocatorIcE8max_sizeB8ue170006Ev, symObjAddr: 0xCAA4, symBinAddr: 0x10000E5FC, symSize: 0x14 }
  - { offsetInCU: 0x17A47, offset: 0x17A47, size: 0x8, addend: 0x0, symName: __ZNSt3__117__compressed_pairINS_12basic_stringIcNS_11char_traitsIcEENS_9allocatorIcEEE5__repES5_E6secondB8ue170006Ev, symObjAddr: 0xCAB8, symBinAddr: 0x10000E610, symSize: 0x24 }
  - { offsetInCU: 0x17A6D, offset: 0x17A6D, size: 0x8, addend: 0x0, symName: __ZNSt3__122__compressed_pair_elemINS_9allocatorIcEELi1ELb1EE5__getB8ue170006Ev, symObjAddr: 0xCADC, symBinAddr: 0x10000E634, symSize: 0x14 }
  - { offsetInCU: 0x17B17, offset: 0x17B17, size: 0x8, addend: 0x0, symName: __ZNKSt3__113basic_istreamIcNS_11char_traitsIcEEE6sentrycvbB8ue170006Ev, symObjAddr: 0xCD28, symBinAddr: 0x10000E880, symSize: 0x1C }
  - { offsetInCU: 0x17B3D, offset: 0x17B3D, size: 0x8, addend: 0x0, symName: __ZNSt3__112basic_stringIcNS_11char_traitsIcEENS_9allocatorIcEEE5clearB8ue170006Ev, symObjAddr: 0xCD44, symBinAddr: 0x10000E89C, symSize: 0x78 }
  - { offsetInCU: 0x17B65, offset: 0x17B65, size: 0x8, addend: 0x0, symName: __ZNSt3__115basic_streambufIcNS_11char_traitsIcEEE6sbumpcB8ue170006Ev, symObjAddr: 0xCDBC, symBinAddr: 0x10000E914, symSize: 0x78 }
  - { offsetInCU: 0x17B8B, offset: 0x17B8B, size: 0x8, addend: 0x0, symName: __ZNSt3__111char_traitsIcE12to_char_typeB8ue170006Ei, symObjAddr: 0xCE34, symBinAddr: 0x10000E98C, symSize: 0x18 }
  - { offsetInCU: 0x17BAE, offset: 0x17BAE, size: 0x8, addend: 0x0, symName: __ZNSt3__111char_traitsIcE2eqEcc, symObjAddr: 0xCE4C, symBinAddr: 0x10000E9A4, symSize: 0x28 }
  - { offsetInCU: 0x17BDF, offset: 0x17BDF, size: 0x8, addend: 0x0, symName: __ZNKSt3__112basic_stringIcNS_11char_traitsIcEENS_9allocatorIcEEE8max_sizeB8ue170006Ev, symObjAddr: 0xCE74, symBinAddr: 0x10000E9CC, symSize: 0xAC }
  - { offsetInCU: 0x17C31, offset: 0x17C31, size: 0x8, addend: 0x0, symName: __ZNSt3__18ios_base18__setstate_nothrowB8ue170006Ej, symObjAddr: 0xCF20, symBinAddr: 0x10000EA78, symSize: 0x64 }
  - { offsetInCU: 0x17C66, offset: 0x17C66, size: 0x8, addend: 0x0, symName: __ZNKSt3__19basic_iosIcNS_11char_traitsIcEEE10exceptionsB8ue170006Ev, symObjAddr: 0xCF84, symBinAddr: 0x10000EADC, symSize: 0x24 }
  - { offsetInCU: 0x17C8C, offset: 0x17C8C, size: 0x8, addend: 0x0, symName: __ZNSt3__111char_traitsIcE6assignB8ue170006ERcRKc, symObjAddr: 0xCFA8, symBinAddr: 0x10000EB00, symSize: 0x24 }
  - { offsetInCU: 0x17CBD, offset: 0x17CBD, size: 0x8, addend: 0x0, symName: __ZNSt3__112basic_stringIcNS_11char_traitsIcEENS_9allocatorIcEEE18__get_long_pointerB8ue170006Ev, symObjAddr: 0xCFCC, symBinAddr: 0x10000EB24, symSize: 0x28 }
  - { offsetInCU: 0x17CE3, offset: 0x17CE3, size: 0x8, addend: 0x0, symName: __ZNSt3__112basic_stringIcNS_11char_traitsIcEENS_9allocatorIcEEE19__get_short_pointerB8ue170006Ev, symObjAddr: 0xCFF4, symBinAddr: 0x10000EB4C, symSize: 0x28 }
  - { offsetInCU: 0x17D09, offset: 0x17D09, size: 0x8, addend: 0x0, symName: __ZNSt3__112basic_stringIcNS_11char_traitsIcEENS_9allocatorIcEEE16__set_short_sizeB8ue170006Em, symObjAddr: 0xD01C, symBinAddr: 0x10000EB74, symSize: 0x78 }
  - { offsetInCU: 0x17D3E, offset: 0x17D3E, size: 0x8, addend: 0x0, symName: __ZNSt3__114pointer_traitsIPcE10pointer_toB8ue170006ERc, symObjAddr: 0xD094, symBinAddr: 0x10000EBEC, symSize: 0x14 }
  - { offsetInCU: 0x17D61, offset: 0x17D61, size: 0x8, addend: 0x0, symName: __ZNSt3__111char_traitsIcE11to_int_typeB8ue170006Ec, symObjAddr: 0xD0A8, symBinAddr: 0x10000EC00, symSize: 0x14 }
  - { offsetInCU: 0x17D85, offset: 0x17D85, size: 0x8, addend: 0x0, symName: __ZNKSt3__112basic_stringIcNS_11char_traitsIcEENS_9allocatorIcEEE7__allocB8ue170006Ev, symObjAddr: 0xD0BC, symBinAddr: 0x10000EC14, symSize: 0x24 }
  - { offsetInCU: 0x17DAB, offset: 0x17DAB, size: 0x8, addend: 0x0, symName: __ZNKSt3__117__compressed_pairINS_12basic_stringIcNS_11char_traitsIcEENS_9allocatorIcEEE5__repES5_E6secondB8ue170006Ev, symObjAddr: 0xD0E0, symBinAddr: 0x10000EC38, symSize: 0x24 }
  - { offsetInCU: 0x17DD1, offset: 0x17DD1, size: 0x8, addend: 0x0, symName: __ZNKSt3__122__compressed_pair_elemINS_9allocatorIcEELi1ELb1EE5__getB8ue170006Ev, symObjAddr: 0xD104, symBinAddr: 0x10000EC5C, symSize: 0x14 }
  - { offsetInCU: 0x17DF7, offset: 0x17DF7, size: 0x8, addend: 0x0, symName: __ZNKSt3__18ios_base10exceptionsB8ue170006Ev, symObjAddr: 0xD118, symBinAddr: 0x10000EC70, symSize: 0x18 }
  - { offsetInCU: 0x17E1F, offset: 0x17E1F, size: 0x8, addend: 0x0, symName: __ZNKSt3__19basic_iosIcNS_11char_traitsIcEEE4failB8ue170006Ev, symObjAddr: 0xD130, symBinAddr: 0x10000EC88, symSize: 0x28 }
  - { offsetInCU: 0x17E45, offset: 0x17E45, size: 0x8, addend: 0x0, symName: __ZNKSt3__18ios_base4failB8ue170006Ev, symObjAddr: 0xD158, symBinAddr: 0x10000ECB0, symSize: 0x28 }
  - { offsetInCU: 0x17E6D, offset: 0x17E6D, size: 0x8, addend: 0x0, symName: __ZNKSt3__112basic_stringIcNS_11char_traitsIcEENS_9allocatorIcEEE15__get_long_sizeB8ue170006Ev, symObjAddr: 0xD180, symBinAddr: 0x10000ECD8, symSize: 0x28 }
  - { offsetInCU: 0x17E93, offset: 0x17E93, size: 0x8, addend: 0x0, symName: __ZNKSt3__112basic_stringIcNS_11char_traitsIcEENS_9allocatorIcEEE16__get_short_sizeB8ue170006Ev, symObjAddr: 0xD1A8, symBinAddr: 0x10000ED00, symSize: 0x34 }
  - { offsetInCU: 0x17EB9, offset: 0x17EB9, size: 0x8, addend: 0x0, symName: __ZNSt3__112basic_stringIcNS_11char_traitsIcEENS_9allocatorIcEEE13__get_pointerB8ue170006Ev, symObjAddr: 0xD1DC, symBinAddr: 0x10000ED34, symSize: 0x54 }
  - { offsetInCU: 0x17EDF, offset: 0x17EDF, size: 0x8, addend: 0x0, symName: __ZNKSt3__114__bit_iteratorINS_6vectorIbNS_9allocatorIbEEEELb0ELm0EEdeB8ue170006Ev, symObjAddr: 0xD400, symBinAddr: 0x10000EF58, symSize: 0x44 }
  - { offsetInCU: 0x17F05, offset: 0x17F05, size: 0x8, addend: 0x0, symName: __ZNSt3__114__bit_iteratorINS_6vectorIbNS_9allocatorIbEEEELb0ELm0EEppB8ue170006Ev, symObjAddr: 0xD444, symBinAddr: 0x10000EF9C, symSize: 0x5C }
...
