---
triple:          'arm64-apple-darwin'
binary-path:     '/Users/nithinkumar/Documents/NIT Trichy/sem 6/compiler lab/lab8/output/dag'
relocations:
  - { offsetInCU: 0xBF7E, offset: 0xBF7E, size: 0x8, addend: 0x0, symName: __ZNSt3__124__put_character_sequenceB8ue170006IcNS_11char_traitsIcEEEERNS_13basic_ostreamIT_T0_EES7_PKS4_m, symObjAddr: 0xE66C, symBinAddr: 0x1000100C4, symSize: 0x1F4 }
  - { offsetInCU: 0x10AA0, offset: 0x10AA0, size: 0x8, addend: 0x0, symName: __ZNSt3__1neB8ue170006IPP7DAGNodeEEbRKNS_11__wrap_iterIT_EES8_, symObjAddr: 0x7E4, symBinAddr: 0x10000223C, symSize: 0x34 }
  - { offsetInCU: 0x10AE3, offset: 0x10AE3, size: 0x8, addend: 0x0, symName: __ZNSt3__1lsB8ue170006IcNS_11char_traitsIcEENS_9allocatorIcEEEERNS_13basic_ostreamIT_T0_EES9_RKNS_12basic_stringIS6_S7_T1_EE, symObjAddr: 0x83C, symBinAddr: 0x100002294, symSize: 0x4C }
  - { offsetInCU: 0x10B3B, offset: 0x10B3B, size: 0x8, addend: 0x0, symName: __ZNSt3__1lsB8ue170006INS_11char_traitsIcEEEERNS_13basic_ostreamIcT_EES6_PKc, symObjAddr: 0x888, symBinAddr: 0x1000022E0, symSize: 0x48 }
  - { offsetInCU: 0x10B81, offset: 0x10B81, size: 0x8, addend: 0x0, symName: __ZNSt3__14endlB8ue170006IcNS_11char_traitsIcEEEERNS_13basic_ostreamIT_T0_EES7_, symObjAddr: 0x8FC, symBinAddr: 0x100002354, symSize: 0x58 }
  - { offsetInCU: 0x113B3, offset: 0x113B3, size: 0x8, addend: 0x0, symName: __ZNSt3__1neB8ue170006ERKNS_19__hash_map_iteratorINS_15__hash_iteratorIPNS_11__hash_nodeINS_17__hash_value_typeINS_12basic_stringIcNS_11char_traitsIcEENS_9allocatorIcEEEEP7DAGNodeEEPvEEEEEESJ_, symObjAddr: 0xEEC, symBinAddr: 0x100002944, symSize: 0x30 }
  - { offsetInCU: 0x113F0, offset: 0x113F0, size: 0x8, addend: 0x0, symName: __ZNSt3__1neB8ue170006ERKNS_21__hash_const_iteratorIPNS_11__hash_nodeIP7DAGNodePvEEEES9_, symObjAddr: 0x100C, symBinAddr: 0x100002A64, symSize: 0x34 }
  - { offsetInCU: 0x1142D, offset: 0x1142D, size: 0x8, addend: 0x0, symName: __ZNSt3__1eqB8ue170006ERKNS_21__hash_const_iteratorIPNS_11__hash_nodeIP7DAGNodePvEEEES9_, symObjAddr: 0x1170, symBinAddr: 0x100002BC8, symSize: 0x30 }
  - { offsetInCU: 0x1146A, offset: 0x1146A, size: 0x8, addend: 0x0, symName: __ZNSt3__17reverseB8ue170006INS_11__wrap_iterIPP7DAGNodeEEEEvT_S6_, symObjAddr: 0x11A0, symBinAddr: 0x100002BF8, symSize: 0x3C }
  - { offsetInCU: 0x114A9, offset: 0x114A9, size: 0x8, addend: 0x0, symName: __ZNSt3__130__libcpp_is_constant_evaluatedB8ue170006Ev, symObjAddr: 0x1C24, symBinAddr: 0x10000367C, symSize: 0xC }
  - { offsetInCU: 0x114C6, offset: 0x114C6, size: 0x8, addend: 0x0, symName: __ZNSt3__119__libcpp_deallocateB8ue170006EPvmm, symObjAddr: 0x1C30, symBinAddr: 0x100003688, symSize: 0x30 }
  - { offsetInCU: 0x1150E, offset: 0x1150E, size: 0x8, addend: 0x0, symName: __ZNSt3__127__do_deallocate_handle_sizeB8ue170006IJEEEvPvmDpT_, symObjAddr: 0x1C60, symBinAddr: 0x1000036B8, symSize: 0x28 }
  - { offsetInCU: 0x1154C, offset: 0x1154C, size: 0x8, addend: 0x0, symName: __ZNSt3__124__libcpp_operator_deleteB8ue170006IJPvEEEvDpT_, symObjAddr: 0x1C88, symBinAddr: 0x1000036E0, symSize: 0x24 }
  - { offsetInCU: 0x11581, offset: 0x11581, size: 0x8, addend: 0x0, symName: __ZNSt3__112__to_addressB8ue170006IP7DAGNodeEEPT_S4_, symObjAddr: 0x270C, symBinAddr: 0x100004164, symSize: 0x14 }
  - { offsetInCU: 0x115B6, offset: 0x115B6, size: 0x8, addend: 0x0, symName: __ZNSt3__112__to_addressB8ue170006IPP7DAGNodeEEPT_S5_, symObjAddr: 0x29D8, symBinAddr: 0x100004430, symSize: 0x14 }
  - { offsetInCU: 0x115EB, offset: 0x115EB, size: 0x8, addend: 0x0, symName: __ZNSt3__1neB8ue170006ERKNS_15__hash_iteratorIPNS_11__hash_nodeINS_17__hash_value_typeINS_12basic_stringIcNS_11char_traitsIcEENS_9allocatorIcEEEEP7DAGNodeEEPvEEEESH_, symObjAddr: 0x2C4C, symBinAddr: 0x1000046A4, symSize: 0x34 }
  - { offsetInCU: 0x11628, offset: 0x11628, size: 0x8, addend: 0x0, symName: __ZNSt3__1eqB8ue170006ERKNS_15__hash_iteratorIPNS_11__hash_nodeINS_17__hash_value_typeINS_12basic_stringIcNS_11char_traitsIcEENS_9allocatorIcEEEEP7DAGNodeEEPvEEEESH_, symObjAddr: 0x2C80, symBinAddr: 0x1000046D8, symSize: 0x30 }
  - { offsetInCU: 0x116CB, offset: 0x116CB, size: 0x8, addend: 0x0, symName: __ZNSt3__13maxB8ue170006ImEERKT_S3_S3_, symObjAddr: 0x3D14, symBinAddr: 0x10000576C, symSize: 0x2C }
  - { offsetInCU: 0x11AE3, offset: 0x11AE3, size: 0x8, addend: 0x0, symName: __ZNSt3__14swapB8ue170006IPPP7DAGNodeEEvRT_S6_, symObjAddr: 0x4374, symBinAddr: 0x100005DCC, symSize: 0x3C }
  - { offsetInCU: 0x11B34, offset: 0x11B34, size: 0x8, addend: 0x0, symName: __ZNSt3__14moveB8ue170006IPPP7DAGNodeS4_EET0_T_S6_S5_, symObjAddr: 0x44A4, symBinAddr: 0x100005EFC, symSize: 0x40 }
  - { offsetInCU: 0x11BAA, offset: 0x11BAA, size: 0x8, addend: 0x0, symName: __ZNSt3__16__moveB8ue170006INS_17_ClassicAlgPolicyEPPP7DAGNodeS5_S5_EENS_4pairIT0_T2_EES7_T1_S8_, symObjAddr: 0x45AC, symBinAddr: 0x100006004, symSize: 0x44 }
  - { offsetInCU: 0x11C16, offset: 0x11C16, size: 0x8, addend: 0x0, symName: __ZNSt3__123__dispatch_copy_or_moveB8ue170006INS_17_ClassicAlgPolicyENS_11__move_loopIS1_EENS_14__move_trivialEPPP7DAGNodeS8_S8_EENS_4pairIT2_T4_EESA_T3_SB_, symObjAddr: 0x45F0, symBinAddr: 0x100006048, symSize: 0x44 }
  - { offsetInCU: 0x11C94, offset: 0x11C94, size: 0x8, addend: 0x0, symName: __ZNSt3__121__unwrap_and_dispatchB8ue170006INS_10__overloadINS_11__move_loopINS_17_ClassicAlgPolicyEEENS_14__move_trivialEEEPPP7DAGNodeSA_SA_Li0EEENS_4pairIT0_T2_EESC_T1_SD_, symObjAddr: 0x4634, symBinAddr: 0x10000608C, symSize: 0xB4 }
  - { offsetInCU: 0x11D22, offset: 0x11D22, size: 0x8, addend: 0x0, symName: __ZNSt3__114__unwrap_rangeB8ue170006IPPP7DAGNodeS4_EENS_4pairIT0_S6_EET_S8_, symObjAddr: 0x46E8, symBinAddr: 0x100006140, symSize: 0x60 }
  - { offsetInCU: 0x11E61, offset: 0x11E61, size: 0x8, addend: 0x0, symName: __ZNSt3__113__unwrap_iterB8ue170006IPPP7DAGNodeNS_18__unwrap_iter_implIS4_Lb1EEELi0EEEDTclsrT0_8__unwrapclsr3stdE7declvalIT_EEEES8_, symObjAddr: 0x4790, symBinAddr: 0x1000061E8, symSize: 0x24 }
  - { offsetInCU: 0x11EA5, offset: 0x11EA5, size: 0x8, addend: 0x0, symName: __ZNSt3__19make_pairB8ue170006IPPP7DAGNodeS4_EENS_4pairINS_18__unwrap_ref_decayIT_E4typeENS6_IT0_E4typeEEEOS7_OSA_, symObjAddr: 0x47B4, symBinAddr: 0x10000620C, symSize: 0x38 }
  - { offsetInCU: 0x11EF4, offset: 0x11EF4, size: 0x8, addend: 0x0, symName: __ZNSt3__114__rewrap_rangeB8ue170006IPPP7DAGNodeS4_EET_S5_T0_, symObjAddr: 0x47EC, symBinAddr: 0x100006244, symSize: 0x2C }
  - { offsetInCU: 0x11F40, offset: 0x11F40, size: 0x8, addend: 0x0, symName: __ZNSt3__113__rewrap_iterB8ue170006IPPP7DAGNodeS4_NS_18__unwrap_iter_implIS4_Lb1EEEEET_S7_T0_, symObjAddr: 0x4818, symBinAddr: 0x100006270, symSize: 0x50 }
  - { offsetInCU: 0x11F95, offset: 0x11F95, size: 0x8, addend: 0x0, symName: __ZNSt3__119__copy_trivial_implB8ue170006IPP7DAGNodeS3_EENS_4pairIPT_PT0_EES6_S6_S8_, symObjAddr: 0x4868, symBinAddr: 0x1000062C0, symSize: 0x80 }
  - { offsetInCU: 0x11FFD, offset: 0x11FFD, size: 0x8, addend: 0x0, symName: __ZNSt3__119__constexpr_memmoveB8ue170006IPP7DAGNodeS3_Li0EEEPT_S5_PT0_NS_15__element_countE, symObjAddr: 0x48E8, symBinAddr: 0x100006340, symSize: 0xA0 }
  - { offsetInCU: 0x1206B, offset: 0x1206B, size: 0x8, addend: 0x0, symName: __ZNSt3__19make_pairB8ue170006IRPPP7DAGNodeS4_EENS_4pairINS_18__unwrap_ref_decayIT_E4typeENS7_IT0_E4typeEEEOS8_OSB_, symObjAddr: 0x4988, symBinAddr: 0x1000063E0, symSize: 0x38 }
  - { offsetInCU: 0x1210D, offset: 0x1210D, size: 0x8, addend: 0x0, symName: __ZNSt3__18distanceB8ue170006INS_13move_iteratorIPPP7DAGNodeEEEENS_15iterator_traitsIT_E15difference_typeES8_S8_, symObjAddr: 0x4B88, symBinAddr: 0x1000065E0, symSize: 0x3C }
  - { offsetInCU: 0x12150, offset: 0x12150, size: 0x8, addend: 0x0, symName: __ZNSt3__110__distanceB8ue170006INS_13move_iteratorIPPP7DAGNodeEEEENS_15iterator_traitsIT_E15difference_typeES8_S8_NS_26random_access_iterator_tagE, symObjAddr: 0x4D8C, symBinAddr: 0x1000067E4, symSize: 0x30 }
  - { offsetInCU: 0x1219D, offset: 0x1219D, size: 0x8, addend: 0x0, symName: __ZNSt3__1miB8ue170006IPPP7DAGNodeS4_EENS_13move_iteratorIT_E15difference_typeERKS7_RKNS5_IT0_EE, symObjAddr: 0x4DBC, symBinAddr: 0x100006814, symSize: 0x48 }
  - { offsetInCU: 0x121EC, offset: 0x121EC, size: 0x8, addend: 0x0, symName: __ZNSt3__117__libcpp_allocateB8ue170006Emm, symObjAddr: 0x4F40, symBinAddr: 0x100006998, symSize: 0x28 }
  - { offsetInCU: 0x12229, offset: 0x12229, size: 0x8, addend: 0x0, symName: __ZNSt3__121__libcpp_operator_newB8ue170006IJmEEEPvDpT_, symObjAddr: 0x4F7C, symBinAddr: 0x1000069D4, symSize: 0x24 }
  - { offsetInCU: 0x12262, offset: 0x12262, size: 0x8, addend: 0x0, symName: __ZNSt3__113move_backwardB8ue170006IPPP7DAGNodeS4_EET0_T_S6_S5_, symObjAddr: 0x4FA0, symBinAddr: 0x1000069F8, symSize: 0x40 }
  - { offsetInCU: 0x122BC, offset: 0x122BC, size: 0x8, addend: 0x0, symName: __ZNSt3__115__move_backwardB8ue170006INS_17_ClassicAlgPolicyEPPP7DAGNodeS5_S5_EENS_4pairIT0_T2_EES7_T1_S8_, symObjAddr: 0x4FE0, symBinAddr: 0x100006A38, symSize: 0x44 }
  - { offsetInCU: 0x12328, offset: 0x12328, size: 0x8, addend: 0x0, symName: __ZNSt3__123__dispatch_copy_or_moveB8ue170006INS_17_ClassicAlgPolicyENS_20__move_backward_loopIS1_EENS_23__move_backward_trivialEPPP7DAGNodeS8_S8_EENS_4pairIT2_T4_EESA_T3_SB_, symObjAddr: 0x5024, symBinAddr: 0x100006A7C, symSize: 0x44 }
  - { offsetInCU: 0x123A6, offset: 0x123A6, size: 0x8, addend: 0x0, symName: __ZNSt3__121__unwrap_and_dispatchB8ue170006INS_10__overloadINS_20__move_backward_loopINS_17_ClassicAlgPolicyEEENS_23__move_backward_trivialEEEPPP7DAGNodeSA_SA_Li0EEENS_4pairIT0_T2_EESC_T1_SD_, symObjAddr: 0x5068, symBinAddr: 0x100006AC0, symSize: 0xB4 }
  - { offsetInCU: 0x1247A, offset: 0x1247A, size: 0x8, addend: 0x0, symName: __ZNSt3__128__copy_backward_trivial_implB8ue170006IPP7DAGNodeS3_EENS_4pairIPT_PT0_EES6_S6_S8_, symObjAddr: 0x5164, symBinAddr: 0x100006BBC, symSize: 0x90 }
  - { offsetInCU: 0x124E2, offset: 0x124E2, size: 0x8, addend: 0x0, symName: __ZNSt3__19make_pairB8ue170006IRPPP7DAGNodeS5_EENS_4pairINS_18__unwrap_ref_decayIT_E4typeENS7_IT0_E4typeEEEOS8_OSB_, symObjAddr: 0x51F4, symBinAddr: 0x100006C4C, symSize: 0x38 }
  - { offsetInCU: 0x12531, offset: 0x12531, size: 0x8, addend: 0x0, symName: __ZNSt3__13maxB8ue170006ImNS_6__lessIvvEEEERKT_S5_S5_T0_, symObjAddr: 0x5270, symBinAddr: 0x100006CC8, symSize: 0x54 }
  - { offsetInCU: 0x125D0, offset: 0x125D0, size: 0x8, addend: 0x0, symName: __ZNSt3__119__allocate_at_leastB8ue170006INS_9allocatorIPP7DAGNodeEEEENS_19__allocation_resultINS_16allocator_traitsIT_E7pointerEEERS8_m, symObjAddr: 0x5408, symBinAddr: 0x100006E60, symSize: 0x40 }
  - { offsetInCU: 0x12613, offset: 0x12613, size: 0x8, addend: 0x0, symName: __ZNSt3__116__constrain_hashB8ue170006Emm, symObjAddr: 0x61F0, symBinAddr: 0x100007C48, symSize: 0x98 }
  - { offsetInCU: 0x1264D, offset: 0x1264D, size: 0x8, addend: 0x0, symName: __ZNSt3__110__loadwordB8ue170006ImEET_PKv, symObjAddr: 0x6DA4, symBinAddr: 0x1000087FC, symSize: 0x20 }
  - { offsetInCU: 0x12690, offset: 0x12690, size: 0x8, addend: 0x0, symName: __ZNSt3__14swapB8ue170006ImEEvRT_S2_, symObjAddr: 0x6F60, symBinAddr: 0x1000089B8, symSize: 0x3C }
  - { offsetInCU: 0x126E1, offset: 0x126E1, size: 0x8, addend: 0x0, symName: __ZNSt3__110__loadwordB8ue170006IjEET_PKv, symObjAddr: 0x6FF0, symBinAddr: 0x100008A48, symSize: 0x20 }
  - { offsetInCU: 0x12757, offset: 0x12757, size: 0x8, addend: 0x0, symName: __ZNSt3__116__is_hash_power2B8ue170006Em, symObjAddr: 0x79DC, symBinAddr: 0x100009434, symSize: 0x50 }
  - { offsetInCU: 0x127A1, offset: 0x127A1, size: 0x8, addend: 0x0, symName: __ZNSt3__116__next_hash_pow2B8ue170006Em, symObjAddr: 0x841C, symBinAddr: 0x100009E74, symSize: 0x6C }
  - { offsetInCU: 0x127CD, offset: 0x127CD, size: 0x8, addend: 0x0, symName: __ZNSt3__112__libcpp_clzB8ue170006Em, symObjAddr: 0x860C, symBinAddr: 0x10000A064, symSize: 0x1C }
  - { offsetInCU: 0x127F9, offset: 0x127F9, size: 0x8, addend: 0x0, symName: __ZNSt3__13minB8ue170006ImEERKT_S3_S3_, symObjAddr: 0x8F38, symBinAddr: 0x10000A990, symSize: 0x2C }
  - { offsetInCU: 0x12A3D, offset: 0x12A3D, size: 0x8, addend: 0x0, symName: __ZNSt3__13minB8ue170006ImNS_6__lessIvvEEEERKT_S5_S5_T0_, symObjAddr: 0x8FA0, symBinAddr: 0x10000A9F8, symSize: 0x54 }
  - { offsetInCU: 0x12A97, offset: 0x12A97, size: 0x8, addend: 0x0, symName: __ZNSt3__120__throw_length_errorB8ue170006EPKc, symObjAddr: 0x9034, symBinAddr: 0x10000AA8C, symSize: 0x64 }
  - { offsetInCU: 0x12AC1, offset: 0x12AC1, size: 0x8, addend: 0x0, symName: __ZNSt3__119__allocate_at_leastB8ue170006INS_9allocatorIP7DAGNodeEEEENS_19__allocation_resultINS_16allocator_traitsIT_E7pointerEEERS7_m, symObjAddr: 0x9274, symBinAddr: 0x10000ACCC, symSize: 0x40 }
  - { offsetInCU: 0x12B04, offset: 0x12B04, size: 0x8, addend: 0x0, symName: __ZNSt3__142__uninitialized_allocator_move_if_noexceptB8ue170006INS_9allocatorIP7DAGNodeEENS_16reverse_iteratorIPS3_EES7_S3_vEET1_RT_T0_SB_S8_, symObjAddr: 0x9488, symBinAddr: 0x10000AEE0, symSize: 0xE8 }
  - { offsetInCU: 0x12B81, offset: 0x12B81, size: 0x8, addend: 0x0, symName: __ZNSt3__14swapB8ue170006IPP7DAGNodeEEvRT_S5_, symObjAddr: 0x95BC, symBinAddr: 0x10000B014, symSize: 0x3C }
  - { offsetInCU: 0x12BD2, offset: 0x12BD2, size: 0x8, addend: 0x0, symName: __ZNSt3__1neB8ue170006IPP7DAGNodeS3_EEbRKNS_16reverse_iteratorIT_EERKNS4_IT0_EE, symObjAddr: 0x96EC, symBinAddr: 0x10000B144, symSize: 0x48 }
  - { offsetInCU: 0x12C43, offset: 0x12C43, size: 0x8, addend: 0x0, symName: __ZNSt3__114__construct_atB8ue170006IP7DAGNodeJS2_EPS2_EEPT_S5_DpOT0_, symObjAddr: 0x9734, symBinAddr: 0x10000B18C, symSize: 0x2C }
  - { offsetInCU: 0x12CB3, offset: 0x12CB3, size: 0x8, addend: 0x0, symName: __ZNSt3__112__to_addressB8ue170006INS_16reverse_iteratorIPP7DAGNodeEEvEEu7__decayIDTclsr19__to_address_helperIT_EE6__callclsr3stdE7declvalIRKS6_EEEEES8_, symObjAddr: 0x9760, symBinAddr: 0x10000B1B8, symSize: 0x24 }
  - { offsetInCU: 0x12CE9, offset: 0x12CE9, size: 0x8, addend: 0x0, symName: __ZNSt3__14moveB8ue170006INS_16reverse_iteratorIPP7DAGNodeEES5_EET0_T_S7_S6_, symObjAddr: 0x97CC, symBinAddr: 0x10000B224, symSize: 0x78 }
  - { offsetInCU: 0x12D6C, offset: 0x12D6C, size: 0x8, addend: 0x0, symName: __ZNSt3__16__moveB8ue170006INS_17_ClassicAlgPolicyENS_16reverse_iteratorIPP7DAGNodeEES6_S6_EENS_4pairIT0_T2_EES8_T1_S9_, symObjAddr: 0x98B4, symBinAddr: 0x10000B30C, symSize: 0x64 }
  - { offsetInCU: 0x12DD8, offset: 0x12DD8, size: 0x8, addend: 0x0, symName: __ZNSt3__123__dispatch_copy_or_moveB8ue170006INS_17_ClassicAlgPolicyENS_11__move_loopIS1_EENS_14__move_trivialENS_16reverse_iteratorIPP7DAGNodeEES9_S9_EENS_4pairIT2_T4_EESB_T3_SC_, symObjAddr: 0x9918, symBinAddr: 0x10000B370, symSize: 0x64 }
  - { offsetInCU: 0x12E56, offset: 0x12E56, size: 0x8, addend: 0x0, symName: __ZNSt3__121__unwrap_and_dispatchB8ue170006INS_10__overloadINS_11__move_loopINS_17_ClassicAlgPolicyEEENS_14__move_trivialEEENS_16reverse_iteratorIPP7DAGNodeEESB_SB_Li0EEENS_4pairIT0_T2_EESD_T1_SE_, symObjAddr: 0x997C, symBinAddr: 0x10000B3D4, symSize: 0x12C }
  - { offsetInCU: 0x12EE6, offset: 0x12EE6, size: 0x8, addend: 0x0, symName: __ZNSt3__114__unwrap_rangeB8ue170006INS_16reverse_iteratorIPP7DAGNodeEES5_EENS_4pairIT0_S7_EET_S9_, symObjAddr: 0x9AA8, symBinAddr: 0x10000B500, symSize: 0x84 }
  - { offsetInCU: 0x1303A, offset: 0x1303A, size: 0x8, addend: 0x0, symName: __ZNSt3__113__unwrap_iterB8ue170006INS_16reverse_iteratorIPP7DAGNodeEENS_18__unwrap_iter_implIS5_Lb0EEELi0EEEDTclsrT0_8__unwrapclsr3stdE7declvalIT_EEEES9_, symObjAddr: 0x9BCC, symBinAddr: 0x10000B624, symSize: 0x44 }
  - { offsetInCU: 0x1307E, offset: 0x1307E, size: 0x8, addend: 0x0, symName: __ZNSt3__19make_pairB8ue170006INS_16reverse_iteratorIPP7DAGNodeEES5_EENS_4pairINS_18__unwrap_ref_decayIT_E4typeENS7_IT0_E4typeEEEOS8_OSB_, symObjAddr: 0x9C10, symBinAddr: 0x10000B668, symSize: 0x38 }
  - { offsetInCU: 0x130CD, offset: 0x130CD, size: 0x8, addend: 0x0, symName: __ZNSt3__114__rewrap_rangeB8ue170006INS_16reverse_iteratorIPP7DAGNodeEES5_EET_S6_T0_, symObjAddr: 0x9C48, symBinAddr: 0x10000B6A0, symSize: 0x5C }
  - { offsetInCU: 0x13119, offset: 0x13119, size: 0x8, addend: 0x0, symName: __ZNSt3__113__rewrap_iterB8ue170006INS_16reverse_iteratorIPP7DAGNodeEES5_NS_18__unwrap_iter_implIS5_Lb0EEEEET_S8_T0_, symObjAddr: 0x9CA4, symBinAddr: 0x10000B6FC, symSize: 0x88 }
  - { offsetInCU: 0x13248, offset: 0x13248, size: 0x8, addend: 0x0, symName: __ZNSt3__19__reverseB8ue170006INS_17_ClassicAlgPolicyENS_11__wrap_iterIPP7DAGNodeEES6_EEvT0_T1_, symObjAddr: 0xA034, symBinAddr: 0x10000BA8C, symSize: 0x3C }
  - { offsetInCU: 0x13299, offset: 0x13299, size: 0x8, addend: 0x0, symName: __ZNSt3__114__reverse_implB8ue170006INS_17_ClassicAlgPolicyENS_11__wrap_iterIPP7DAGNodeEEEEvT0_S7_NS_26random_access_iterator_tagE, symObjAddr: 0xA070, symBinAddr: 0x10000BAC8, symSize: 0x7C }
  - { offsetInCU: 0x132EB, offset: 0x132EB, size: 0x8, addend: 0x0, symName: __ZNSt3__1ltB8ue170006IPP7DAGNodeEEbRKNS_11__wrap_iterIT_EES8_, symObjAddr: 0xA0EC, symBinAddr: 0x10000BB44, symSize: 0x48 }
  - { offsetInCU: 0x1332E, offset: 0x1332E, size: 0x8, addend: 0x0, symName: __ZNSt3__19iter_swapB8ue170006INS_11__wrap_iterIPP7DAGNodeEES5_EEvT_T0_, symObjAddr: 0xA1B0, symBinAddr: 0x10000BC08, symSize: 0x50 }
  - { offsetInCU: 0x13376, offset: 0x13376, size: 0x8, addend: 0x0, symName: __ZNSt3__14swapB8ue170006IP7DAGNodeEEvRT_S4_, symObjAddr: 0xA200, symBinAddr: 0x10000BC58, symSize: 0x3C }
  - { offsetInCU: 0x133C7, offset: 0x133C7, size: 0x8, addend: 0x0, symName: __ZNSt3__1neB8ue170006ERKNS_16__deque_iteratorIP7DAGNodePS2_RS2_PS3_lLl512EEES8_, symObjAddr: 0xA64C, symBinAddr: 0x10000C0A4, symSize: 0x34 }
  - { offsetInCU: 0x13404, offset: 0x13404, size: 0x8, addend: 0x0, symName: __ZNSt3__1eqB8ue170006ERKNS_16__deque_iteratorIP7DAGNodePS2_RS2_PS3_lLl512EEES8_, symObjAddr: 0xA6F0, symBinAddr: 0x10000C148, symSize: 0x30 }
  - { offsetInCU: 0x13441, offset: 0x13441, size: 0x8, addend: 0x0, symName: __ZNSt3__1eqB8ue170006ERKNS_19__hash_map_iteratorINS_15__hash_iteratorIPNS_11__hash_nodeINS_17__hash_value_typeINS_12basic_stringIcNS_11char_traitsIcEENS_9allocatorIcEEEEP7DAGNodeEEPvEEEEEESJ_, symObjAddr: 0xB308, symBinAddr: 0x10000CD60, symSize: 0x30 }
  - { offsetInCU: 0x1347E, offset: 0x1347E, size: 0x8, addend: 0x0, symName: __ZNSt3__116__do_string_hashB8ue170006IPKcEEmT_S3_, symObjAddr: 0xB86C, symBinAddr: 0x10000D2C4, symSize: 0x3C }
  - { offsetInCU: 0x134C4, offset: 0x134C4, size: 0x8, addend: 0x0, symName: __ZNSt3__112__to_addressB8ue170006IKcEEPT_S3_, symObjAddr: 0xB924, symBinAddr: 0x10000D37C, symSize: 0x14 }
  - { offsetInCU: 0x1352C, offset: 0x1352C, size: 0x8, addend: 0x0, symName: __ZNSt3__1eqB8ue170006INS_9allocatorIcEEEEbRKNS_12basic_stringIcNS_11char_traitsIcEET_EES9_, symObjAddr: 0xBC5C, symBinAddr: 0x10000D6B4, symSize: 0x148 }
  - { offsetInCU: 0x135F0, offset: 0x135F0, size: 0x8, addend: 0x0, symName: __ZNSt3__1eqB8ue170006IPP7DAGNodeEEbRKNS_11__wrap_iterIT_EES8_, symObjAddr: 0xD94C, symBinAddr: 0x10000F3A4, symSize: 0x48 }
  - { offsetInCU: 0x13666, offset: 0x13666, size: 0x8, addend: 0x0, symName: __ZNSt3__116__pad_and_outputB8ue170006IcNS_11char_traitsIcEEEENS_19ostreambuf_iteratorIT_T0_EES6_PKS4_S8_S8_RNS_8ios_baseES4_, symObjAddr: 0xE8C4, symBinAddr: 0x10001031C, symSize: 0x248 }
  - { offsetInCU: 0x13735, offset: 0x13735, size: 0x8, addend: 0x0, symName: __ZNSt3__19use_facetB8ue170006INS_5ctypeIcEEEERKT_RKNS_6localeE, symObjAddr: 0xEF6C, symBinAddr: 0x1000109C4, symSize: 0x2C }
  - { offsetInCU: 0x13C02, offset: 0x13C02, size: 0x8, addend: 0x0, symName: __ZNSt3__118__constexpr_strlenB8ue170006EPKc, symObjAddr: 0xF004, symBinAddr: 0x100010A5C, symSize: 0x24 }
  - { offsetInCU: 0x13C2E, offset: 0x13C2E, size: 0x8, addend: 0x0, symName: __ZNSt3__1neB8ue170006ERKNS_19__hash_map_iteratorINS_15__hash_iteratorIPNS_11__hash_nodeINS_17__hash_value_typeINS_12basic_stringIcNS_11char_traitsIcEENS_9allocatorIcEEEES9_EEPvEEEEEESH_, symObjAddr: 0xF068, symBinAddr: 0x100010AC0, symSize: 0x30 }
  - { offsetInCU: 0x13C6B, offset: 0x13C6B, size: 0x8, addend: 0x0, symName: __ZNSt3__1neB8ue170006ERKNS_15__hash_iteratorIPNS_11__hash_nodeINS_17__hash_value_typeINS_12basic_stringIcNS_11char_traitsIcEENS_9allocatorIcEEEES8_EEPvEEEESF_, symObjAddr: 0xF8F4, symBinAddr: 0x10001134C, symSize: 0x34 }
  - { offsetInCU: 0x13CA8, offset: 0x13CA8, size: 0x8, addend: 0x0, symName: __ZNSt3__1eqB8ue170006ERKNS_15__hash_iteratorIPNS_11__hash_nodeINS_17__hash_value_typeINS_12basic_stringIcNS_11char_traitsIcEENS_9allocatorIcEEEES8_EEPvEEEESF_, symObjAddr: 0xF928, symBinAddr: 0x100011380, symSize: 0x30 }
  - { offsetInCU: 0x14024, offset: 0x14024, size: 0x8, addend: 0x0, symName: __ZSt28__throw_bad_array_new_lengthB8ue170006v, symObjAddr: 0x4F0C, symBinAddr: 0x100006964, symSize: 0x34 }
  - { offsetInCU: 0x14EB9, offset: 0x14EB9, size: 0x8, addend: 0x0, symName: __ZNSt3__16vectorIP7DAGNodeNS_9allocatorIS2_EEE26__swap_out_circular_bufferERNS_14__split_bufferIS2_RS4_EE, symObjAddr: 0x8D2C, symBinAddr: 0x10000A784, symSize: 0x110 }
  - { offsetInCU: 0x17979, offset: 0x17979, size: 0x8, addend: 0x0, symName: __Z12generateCodeR3DAG, symObjAddr: 0x0, symBinAddr: 0x100001A58, symSize: 0x2D8 }
  - { offsetInCU: 0x17AFF, offset: 0x17AFF, size: 0x8, addend: 0x0, symName: __ZN3DAG23generateEvaluationOrderEv, symObjAddr: 0x2D8, symBinAddr: 0x100001D30, symSize: 0x480 }
  - { offsetInCU: 0x17CB4, offset: 0x17CB4, size: 0x8, addend: 0x0, symName: __ZNSt3__113unordered_mapINS_12basic_stringIcNS_11char_traitsIcEENS_9allocatorIcEEEES6_NS_4hashIS6_EENS_8equal_toIS6_EENS4_INS_4pairIKS6_S6_EEEEEC1B8ue170006Ev, symObjAddr: 0x758, symBinAddr: 0x1000021B0, symSize: 0x2C }
  - { offsetInCU: 0x17CDE, offset: 0x17CDE, size: 0x8, addend: 0x0, symName: __ZNSt3__16vectorIP7DAGNodeNS_9allocatorIS2_EEE5beginB8ue170006Ev, symObjAddr: 0x784, symBinAddr: 0x1000021DC, symSize: 0x30 }
  - { offsetInCU: 0x17D06, offset: 0x17D06, size: 0x8, addend: 0x0, symName: __ZNSt3__16vectorIP7DAGNodeNS_9allocatorIS2_EEE3endB8ue170006Ev, symObjAddr: 0x7B4, symBinAddr: 0x10000220C, symSize: 0x30 }
  - { offsetInCU: 0x17D2E, offset: 0x17D2E, size: 0x8, addend: 0x0, symName: __ZNKSt3__111__wrap_iterIPP7DAGNodeEdeB8ue170006Ev, symObjAddr: 0x818, symBinAddr: 0x100002270, symSize: 0x18 }
  - { offsetInCU: 0x17D54, offset: 0x17D54, size: 0x8, addend: 0x0, symName: __ZNSt3__113basic_ostreamIcNS_11char_traitsIcEEElsB8ue170006EPFRS3_S4_E, symObjAddr: 0x8D0, symBinAddr: 0x100002328, symSize: 0x2C }
  - { offsetInCU: 0x17D88, offset: 0x17D88, size: 0x8, addend: 0x0, symName: __ZNSt3__113unordered_mapINS_12basic_stringIcNS_11char_traitsIcEENS_9allocatorIcEEEES6_NS_4hashIS6_EENS_8equal_toIS6_EENS4_INS_4pairIKS6_S6_EEEEEixERSC_, symObjAddr: 0x954, symBinAddr: 0x1000023AC, symSize: 0x128 }
  - { offsetInCU: 0x17DED, offset: 0x17DED, size: 0x8, addend: 0x0, symName: __ZNSt3__111__wrap_iterIPP7DAGNodeEppB8ue170006Ev, symObjAddr: 0xA7C, symBinAddr: 0x1000024D4, symSize: 0x20 }
  - { offsetInCU: 0x17E13, offset: 0x17E13, size: 0x8, addend: 0x0, symName: __ZNSt3__113unordered_mapINS_12basic_stringIcNS_11char_traitsIcEENS_9allocatorIcEEEES6_NS_4hashIS6_EENS_8equal_toIS6_EENS4_INS_4pairIKS6_S6_EEEEED1B8ue170006Ev, symObjAddr: 0xA9C, symBinAddr: 0x1000024F4, symSize: 0x2C }
  - { offsetInCU: 0x17E3D, offset: 0x17E3D, size: 0x8, addend: 0x0, symName: __ZNSt3__16vectorIP7DAGNodeNS_9allocatorIS2_EEED1B8ue170006Ev, symObjAddr: 0xAC8, symBinAddr: 0x100002520, symSize: 0x2C }
  - { offsetInCU: 0x17E67, offset: 0x17E67, size: 0x8, addend: 0x0, symName: _main, symObjAddr: 0xAF4, symBinAddr: 0x10000254C, symSize: 0x21C }
  - { offsetInCU: 0x17E90, offset: 0x17E90, size: 0x8, addend: 0x0, symName: __ZN3DAGC1Ev, symObjAddr: 0xD10, symBinAddr: 0x100002768, symSize: 0x2C }
  - { offsetInCU: 0x17EBC, offset: 0x17EBC, size: 0x8, addend: 0x0, symName: __ZN3DAG7addEdgeERKNSt3__112basic_stringIcNS0_11char_traitsIcEENS0_9allocatorIcEEEES8_, symObjAddr: 0xD3C, symBinAddr: 0x100002794, symSize: 0x5C }
  - { offsetInCU: 0x17F1F, offset: 0x17F1F, size: 0x8, addend: 0x0, symName: __ZNSt3__112basic_stringIcNS_11char_traitsIcEENS_9allocatorIcEEEC1B8ue170006ILi0EEEPKc, symObjAddr: 0xD98, symBinAddr: 0x1000027F0, symSize: 0x34 }
  - { offsetInCU: 0x17F5E, offset: 0x17F5E, size: 0x8, addend: 0x0, symName: __ZN3DAGD1Ev, symObjAddr: 0xDCC, symBinAddr: 0x100002824, symSize: 0x2C }
  - { offsetInCU: 0x17F8A, offset: 0x17F8A, size: 0x8, addend: 0x0, symName: __ZNSt3__16vectorIP7DAGNodeNS_9allocatorIS2_EEEC1B8ue170006Ev, symObjAddr: 0xDF8, symBinAddr: 0x100002850, symSize: 0x2C }
  - { offsetInCU: 0x1801D, offset: 0x1801D, size: 0x8, addend: 0x0, symName: __ZNSt3__113unordered_setIP7DAGNodeNS_4hashIS2_EENS_8equal_toIS2_EENS_9allocatorIS2_EEEC1B8ue170006Ev, symObjAddr: 0xE24, symBinAddr: 0x10000287C, symSize: 0x2C }
  - { offsetInCU: 0x18074, offset: 0x18074, size: 0x8, addend: 0x0, symName: __ZNSt3__15stackIP7DAGNodeNS_5dequeIS2_NS_9allocatorIS2_EEEEEC1B8ue170006Ev, symObjAddr: 0xE50, symBinAddr: 0x1000028A8, symSize: 0x2C }
  - { offsetInCU: 0x1809E, offset: 0x1809E, size: 0x8, addend: 0x0, symName: __ZNSt3__113unordered_mapINS_12basic_stringIcNS_11char_traitsIcEENS_9allocatorIcEEEEP7DAGNodeNS_4hashIS6_EENS_8equal_toIS6_EENS4_INS_4pairIKS6_S8_EEEEE5beginB8ue170006Ev, symObjAddr: 0xE7C, symBinAddr: 0x1000028D4, symSize: 0x38 }
  - { offsetInCU: 0x180C4, offset: 0x180C4, size: 0x8, addend: 0x0, symName: __ZNSt3__113unordered_mapINS_12basic_stringIcNS_11char_traitsIcEENS_9allocatorIcEEEEP7DAGNodeNS_4hashIS6_EENS_8equal_toIS6_EENS4_INS_4pairIKS6_S8_EEEEE3endB8ue170006Ev, symObjAddr: 0xEB4, symBinAddr: 0x10000290C, symSize: 0x38 }
  - { offsetInCU: 0x180EA, offset: 0x180EA, size: 0x8, addend: 0x0, symName: __ZNKSt3__119__hash_map_iteratorINS_15__hash_iteratorIPNS_11__hash_nodeINS_17__hash_value_typeINS_12basic_stringIcNS_11char_traitsIcEENS_9allocatorIcEEEEP7DAGNodeEEPvEEEEEdeB8ue170006Ev, symObjAddr: 0xF1C, symBinAddr: 0x100002974, symSize: 0x28 }
  - { offsetInCU: 0x18110, offset: 0x18110, size: 0x8, addend: 0x0, symName: __ZNSt3__119__hash_map_iteratorINS_15__hash_iteratorIPNS_11__hash_nodeINS_17__hash_value_typeINS_12basic_stringIcNS_11char_traitsIcEENS_9allocatorIcEEEEP7DAGNodeEEPvEEEEEppB8ue170006Ev, symObjAddr: 0xF44, symBinAddr: 0x10000299C, symSize: 0x2C }
  - { offsetInCU: 0x18136, offset: 0x18136, size: 0x8, addend: 0x0, symName: __ZNSt3__15stackIP7DAGNodeNS_5dequeIS2_NS_9allocatorIS2_EEEEE4pushB8ue170006ERKS2_, symObjAddr: 0xF70, symBinAddr: 0x1000029C8, symSize: 0x2C }
  - { offsetInCU: 0x1816B, offset: 0x1816B, size: 0x8, addend: 0x0, symName: __ZNKSt3__15stackIP7DAGNodeNS_5dequeIS2_NS_9allocatorIS2_EEEEE5emptyB8ue170006Ev, symObjAddr: 0xF9C, symBinAddr: 0x1000029F4, symSize: 0x28 }
  - { offsetInCU: 0x18191, offset: 0x18191, size: 0x8, addend: 0x0, symName: __ZNSt3__15stackIP7DAGNodeNS_5dequeIS2_NS_9allocatorIS2_EEEEE3topB8ue170006Ev, symObjAddr: 0xFC4, symBinAddr: 0x100002A1C, symSize: 0x24 }
  - { offsetInCU: 0x181B7, offset: 0x181B7, size: 0x8, addend: 0x0, symName: __ZNSt3__15stackIP7DAGNodeNS_5dequeIS2_NS_9allocatorIS2_EEEEE3popB8ue170006Ev, symObjAddr: 0xFE8, symBinAddr: 0x100002A40, symSize: 0x24 }
  - { offsetInCU: 0x181DD, offset: 0x181DD, size: 0x8, addend: 0x0, symName: __ZNSt3__113unordered_setIP7DAGNodeNS_4hashIS2_EENS_8equal_toIS2_EENS_9allocatorIS2_EEE4findB8ue170006ERKS2_, symObjAddr: 0x1040, symBinAddr: 0x100002A98, symSize: 0x40 }
  - { offsetInCU: 0x18212, offset: 0x18212, size: 0x8, addend: 0x0, symName: __ZNSt3__113unordered_setIP7DAGNodeNS_4hashIS2_EENS_8equal_toIS2_EENS_9allocatorIS2_EEE3endB8ue170006Ev, symObjAddr: 0x1080, symBinAddr: 0x100002AD8, symSize: 0x38 }
  - { offsetInCU: 0x18238, offset: 0x18238, size: 0x8, addend: 0x0, symName: __ZNSt3__113unordered_setIP7DAGNodeNS_4hashIS2_EENS_8equal_toIS2_EENS_9allocatorIS2_EEE6insertB8ue170006ERKS2_, symObjAddr: 0x10B8, symBinAddr: 0x100002B10, symSize: 0x4C }
  - { offsetInCU: 0x1826D, offset: 0x1826D, size: 0x8, addend: 0x0, symName: __ZNSt3__16vectorIP7DAGNodeNS_9allocatorIS2_EEE9push_backB8ue170006ERKS2_, symObjAddr: 0x1104, symBinAddr: 0x100002B5C, symSize: 0x6C }
  - { offsetInCU: 0x182A4, offset: 0x182A4, size: 0x8, addend: 0x0, symName: __ZNSt3__15stackIP7DAGNodeNS_5dequeIS2_NS_9allocatorIS2_EEEEED1Ev, symObjAddr: 0x11DC, symBinAddr: 0x100002C34, symSize: 0x2C }
  - { offsetInCU: 0x182D0, offset: 0x182D0, size: 0x8, addend: 0x0, symName: __ZNSt3__113unordered_setIP7DAGNodeNS_4hashIS2_EENS_8equal_toIS2_EENS_9allocatorIS2_EEED1B8ue170006Ev, symObjAddr: 0x1208, symBinAddr: 0x100002C60, symSize: 0x2C }
  - { offsetInCU: 0x182FA, offset: 0x182FA, size: 0x8, addend: 0x0, symName: __ZNSt3__16vectorIP7DAGNodeNS_9allocatorIS2_EEEC2B8ue170006Ev, symObjAddr: 0x1234, symBinAddr: 0x100002C8C, symSize: 0x44 }
  - { offsetInCU: 0x1832E, offset: 0x1832E, size: 0x8, addend: 0x0, symName: __ZNSt3__117__compressed_pairIPP7DAGNodeNS_9allocatorIS2_EEEC1B8ue170006IDnNS_18__default_init_tagEEEOT_OT0_, symObjAddr: 0x1278, symBinAddr: 0x100002CD0, symSize: 0x3C }
  - { offsetInCU: 0x18386, offset: 0x18386, size: 0x8, addend: 0x0, symName: __ZNSt3__117__compressed_pairIPP7DAGNodeNS_9allocatorIS2_EEEC2B8ue170006IDnNS_18__default_init_tagEEEOT_OT0_, symObjAddr: 0x12B4, symBinAddr: 0x100002D0C, symSize: 0x40 }
  - { offsetInCU: 0x183DE, offset: 0x183DE, size: 0x8, addend: 0x0, symName: __ZNSt3__122__compressed_pair_elemIPP7DAGNodeLi0ELb0EEC2B8ue170006IDnvEEOT_, symObjAddr: 0x12F4, symBinAddr: 0x100002D4C, symSize: 0x1C }
  - { offsetInCU: 0x18420, offset: 0x18420, size: 0x8, addend: 0x0, symName: __ZNSt3__122__compressed_pair_elemINS_9allocatorIP7DAGNodeEELi1ELb1EEC2B8ue170006ENS_18__default_init_tagE, symObjAddr: 0x1310, symBinAddr: 0x100002D68, symSize: 0x2C }
  - { offsetInCU: 0x18454, offset: 0x18454, size: 0x8, addend: 0x0, symName: __ZNSt3__19allocatorIP7DAGNodeEC2B8ue170006Ev, symObjAddr: 0x133C, symBinAddr: 0x100002D94, symSize: 0x2C }
  - { offsetInCU: 0x1847E, offset: 0x1847E, size: 0x8, addend: 0x0, symName: __ZNSt3__116__non_trivial_ifILb1ENS_9allocatorIP7DAGNodeEEEC2B8ue170006Ev, symObjAddr: 0x1368, symBinAddr: 0x100002DC0, symSize: 0x14 }
  - { offsetInCU: 0x184A8, offset: 0x184A8, size: 0x8, addend: 0x0, symName: __ZNSt3__113unordered_setIP7DAGNodeNS_4hashIS2_EENS_8equal_toIS2_EENS_9allocatorIS2_EEEC2B8ue170006Ev, symObjAddr: 0x137C, symBinAddr: 0x100002DD4, symSize: 0x2C }
  - { offsetInCU: 0x184D2, offset: 0x184D2, size: 0x8, addend: 0x0, symName: __ZNSt3__112__hash_tableIP7DAGNodeNS_4hashIS2_EENS_8equal_toIS2_EENS_9allocatorIS2_EEEC1Ev, symObjAddr: 0x13A8, symBinAddr: 0x100002E00, symSize: 0x2C }
  - { offsetInCU: 0x184FE, offset: 0x184FE, size: 0x8, addend: 0x0, symName: __ZNSt3__112__hash_tableIP7DAGNodeNS_4hashIS2_EENS_8equal_toIS2_EENS_9allocatorIS2_EEEC2Ev, symObjAddr: 0x13D4, symBinAddr: 0x100002E2C, symSize: 0xA4 }
  - { offsetInCU: 0x1852A, offset: 0x1852A, size: 0x8, addend: 0x0, symName: __ZNSt3__110unique_ptrIA_PNS_16__hash_node_baseIPNS_11__hash_nodeIP7DAGNodePvEEEENS_25__bucket_list_deallocatorINS_9allocatorIS9_EEEEEC1B8ue170006ILb1EvEEv, symObjAddr: 0x1478, symBinAddr: 0x100002ED0, symSize: 0x2C }
  - { offsetInCU: 0x1855F, offset: 0x1855F, size: 0x8, addend: 0x0, symName: __ZNSt3__117__compressed_pairINS_16__hash_node_baseIPNS_11__hash_nodeIP7DAGNodePvEEEENS_9allocatorIS6_EEEC1B8ue170006ILb1EvEEv, symObjAddr: 0x14A4, symBinAddr: 0x100002EFC, symSize: 0x2C }
  - { offsetInCU: 0x18599, offset: 0x18599, size: 0x8, addend: 0x0, symName: __ZNSt3__117__compressed_pairImNS_4hashIP7DAGNodeEEEC1B8ue170006IiNS_18__default_init_tagEEEOT_OT0_, symObjAddr: 0x14D0, symBinAddr: 0x100002F28, symSize: 0x3C }
  - { offsetInCU: 0x185F6, offset: 0x185F6, size: 0x8, addend: 0x0, symName: __ZNSt3__117__compressed_pairIfNS_8equal_toIP7DAGNodeEEEC1B8ue170006IfNS_18__default_init_tagEEEOT_OT0_, symObjAddr: 0x150C, symBinAddr: 0x100002F64, symSize: 0x3C }
  - { offsetInCU: 0x1864E, offset: 0x1864E, size: 0x8, addend: 0x0, symName: __ZNSt3__110unique_ptrIA_PNS_16__hash_node_baseIPNS_11__hash_nodeIP7DAGNodePvEEEENS_25__bucket_list_deallocatorINS_9allocatorIS9_EEEEED1B8ue170006Ev, symObjAddr: 0x1548, symBinAddr: 0x100002FA0, symSize: 0x2C }
  - { offsetInCU: 0x18678, offset: 0x18678, size: 0x8, addend: 0x0, symName: __ZNSt3__110unique_ptrIA_PNS_16__hash_node_baseIPNS_11__hash_nodeIP7DAGNodePvEEEENS_25__bucket_list_deallocatorINS_9allocatorIS9_EEEEEC2B8ue170006ILb1EvEEv, symObjAddr: 0x1574, symBinAddr: 0x100002FCC, symSize: 0x50 }
  - { offsetInCU: 0x186B2, offset: 0x186B2, size: 0x8, addend: 0x0, symName: __ZNSt3__117__compressed_pairIPPNS_16__hash_node_baseIPNS_11__hash_nodeIP7DAGNodePvEEEENS_25__bucket_list_deallocatorINS_9allocatorIS9_EEEEEC1B8ue170006INS_16__value_init_tagESH_EEOT_OT0_, symObjAddr: 0x15C4, symBinAddr: 0x10000301C, symSize: 0x3C }
  - { offsetInCU: 0x1870A, offset: 0x1870A, size: 0x8, addend: 0x0, symName: __ZNSt3__117__compressed_pairIPPNS_16__hash_node_baseIPNS_11__hash_nodeIP7DAGNodePvEEEENS_25__bucket_list_deallocatorINS_9allocatorIS9_EEEEEC2B8ue170006INS_16__value_init_tagESH_EEOT_OT0_, symObjAddr: 0x1600, symBinAddr: 0x100003058, symSize: 0x40 }
  - { offsetInCU: 0x18762, offset: 0x18762, size: 0x8, addend: 0x0, symName: __ZNSt3__122__compressed_pair_elemIPPNS_16__hash_node_baseIPNS_11__hash_nodeIP7DAGNodePvEEEELi0ELb0EEC2B8ue170006ENS_16__value_init_tagE, symObjAddr: 0x1640, symBinAddr: 0x100003098, symSize: 0x18 }
  - { offsetInCU: 0x18796, offset: 0x18796, size: 0x8, addend: 0x0, symName: __ZNSt3__122__compressed_pair_elemINS_25__bucket_list_deallocatorINS_9allocatorIPNS_16__hash_node_baseIPNS_11__hash_nodeIP7DAGNodePvEEEEEEEELi1ELb0EEC2B8ue170006ENS_16__value_init_tagE, symObjAddr: 0x1658, symBinAddr: 0x1000030B0, symSize: 0x2C }
  - { offsetInCU: 0x187CA, offset: 0x187CA, size: 0x8, addend: 0x0, symName: __ZNSt3__125__bucket_list_deallocatorINS_9allocatorIPNS_16__hash_node_baseIPNS_11__hash_nodeIP7DAGNodePvEEEEEEEC1B8ue170006Ev, symObjAddr: 0x1684, symBinAddr: 0x1000030DC, symSize: 0x2C }
  - { offsetInCU: 0x187F4, offset: 0x187F4, size: 0x8, addend: 0x0, symName: __ZNSt3__125__bucket_list_deallocatorINS_9allocatorIPNS_16__hash_node_baseIPNS_11__hash_nodeIP7DAGNodePvEEEEEEEC2B8ue170006Ev, symObjAddr: 0x16B0, symBinAddr: 0x100003108, symSize: 0x38 }
  - { offsetInCU: 0x1881E, offset: 0x1881E, size: 0x8, addend: 0x0, symName: __ZNSt3__117__compressed_pairImNS_9allocatorIPNS_16__hash_node_baseIPNS_11__hash_nodeIP7DAGNodePvEEEEEEEC1B8ue170006IiNS_18__default_init_tagEEEOT_OT0_, symObjAddr: 0x16E8, symBinAddr: 0x100003140, symSize: 0x3C }
  - { offsetInCU: 0x18876, offset: 0x18876, size: 0x8, addend: 0x0, symName: __ZNSt3__117__compressed_pairImNS_9allocatorIPNS_16__hash_node_baseIPNS_11__hash_nodeIP7DAGNodePvEEEEEEEC2B8ue170006IiNS_18__default_init_tagEEEOT_OT0_, symObjAddr: 0x1724, symBinAddr: 0x10000317C, symSize: 0x40 }
  - { offsetInCU: 0x188CE, offset: 0x188CE, size: 0x8, addend: 0x0, symName: __ZNSt3__122__compressed_pair_elemImLi0ELb0EEC2B8ue170006IivEEOT_, symObjAddr: 0x1764, symBinAddr: 0x1000031BC, symSize: 0x24 }
  - { offsetInCU: 0x18910, offset: 0x18910, size: 0x8, addend: 0x0, symName: __ZNSt3__122__compressed_pair_elemINS_9allocatorIPNS_16__hash_node_baseIPNS_11__hash_nodeIP7DAGNodePvEEEEEELi1ELb1EEC2B8ue170006ENS_18__default_init_tagE, symObjAddr: 0x1788, symBinAddr: 0x1000031E0, symSize: 0x2C }
  - { offsetInCU: 0x18944, offset: 0x18944, size: 0x8, addend: 0x0, symName: __ZNSt3__19allocatorIPNS_16__hash_node_baseIPNS_11__hash_nodeIP7DAGNodePvEEEEEC2B8ue170006Ev, symObjAddr: 0x17B4, symBinAddr: 0x10000320C, symSize: 0x2C }
  - { offsetInCU: 0x1896E, offset: 0x1896E, size: 0x8, addend: 0x0, symName: __ZNSt3__116__non_trivial_ifILb1ENS_9allocatorIPNS_16__hash_node_baseIPNS_11__hash_nodeIP7DAGNodePvEEEEEEEC2B8ue170006Ev, symObjAddr: 0x17E0, symBinAddr: 0x100003238, symSize: 0x14 }
  - { offsetInCU: 0x18998, offset: 0x18998, size: 0x8, addend: 0x0, symName: __ZNSt3__117__compressed_pairINS_16__hash_node_baseIPNS_11__hash_nodeIP7DAGNodePvEEEENS_9allocatorIS6_EEEC2B8ue170006ILb1EvEEv, symObjAddr: 0x17F4, symBinAddr: 0x10000324C, symSize: 0x34 }
  - { offsetInCU: 0x189CD, offset: 0x189CD, size: 0x8, addend: 0x0, symName: __ZNSt3__122__compressed_pair_elemINS_16__hash_node_baseIPNS_11__hash_nodeIP7DAGNodePvEEEELi0ELb0EEC2B8ue170006ENS_16__value_init_tagE, symObjAddr: 0x1828, symBinAddr: 0x100003280, symSize: 0x2C }
  - { offsetInCU: 0x18A01, offset: 0x18A01, size: 0x8, addend: 0x0, symName: __ZNSt3__122__compressed_pair_elemINS_9allocatorINS_11__hash_nodeIP7DAGNodePvEEEELi1ELb1EEC2B8ue170006ENS_16__value_init_tagE, symObjAddr: 0x1854, symBinAddr: 0x1000032AC, symSize: 0x2C }
  - { offsetInCU: 0x18A35, offset: 0x18A35, size: 0x8, addend: 0x0, symName: __ZNSt3__116__hash_node_baseIPNS_11__hash_nodeIP7DAGNodePvEEEC1B8ue170006Ev, symObjAddr: 0x1880, symBinAddr: 0x1000032D8, symSize: 0x2C }
  - { offsetInCU: 0x18A5F, offset: 0x18A5F, size: 0x8, addend: 0x0, symName: __ZNSt3__116__hash_node_baseIPNS_11__hash_nodeIP7DAGNodePvEEEC2B8ue170006Ev, symObjAddr: 0x18AC, symBinAddr: 0x100003304, symSize: 0x18 }
  - { offsetInCU: 0x18A89, offset: 0x18A89, size: 0x8, addend: 0x0, symName: __ZNSt3__19allocatorINS_11__hash_nodeIP7DAGNodePvEEEC2B8ue170006Ev, symObjAddr: 0x18C4, symBinAddr: 0x10000331C, symSize: 0x2C }
  - { offsetInCU: 0x18AB3, offset: 0x18AB3, size: 0x8, addend: 0x0, symName: __ZNSt3__116__non_trivial_ifILb1ENS_9allocatorINS_11__hash_nodeIP7DAGNodePvEEEEEC2B8ue170006Ev, symObjAddr: 0x18F0, symBinAddr: 0x100003348, symSize: 0x14 }
  - { offsetInCU: 0x18ADD, offset: 0x18ADD, size: 0x8, addend: 0x0, symName: __ZNSt3__117__compressed_pairImNS_4hashIP7DAGNodeEEEC2B8ue170006IiNS_18__default_init_tagEEEOT_OT0_, symObjAddr: 0x1904, symBinAddr: 0x10000335C, symSize: 0x40 }
  - { offsetInCU: 0x18B35, offset: 0x18B35, size: 0x8, addend: 0x0, symName: __ZNSt3__122__compressed_pair_elemINS_4hashIP7DAGNodeEELi1ELb1EEC2B8ue170006ENS_18__default_init_tagE, symObjAddr: 0x1944, symBinAddr: 0x10000339C, symSize: 0x14 }
  - { offsetInCU: 0x18B69, offset: 0x18B69, size: 0x8, addend: 0x0, symName: __ZNSt3__117__compressed_pairIfNS_8equal_toIP7DAGNodeEEEC2B8ue170006IfNS_18__default_init_tagEEEOT_OT0_, symObjAddr: 0x1958, symBinAddr: 0x1000033B0, symSize: 0x40 }
  - { offsetInCU: 0x18BC1, offset: 0x18BC1, size: 0x8, addend: 0x0, symName: __ZNSt3__122__compressed_pair_elemIfLi0ELb0EEC2B8ue170006IfvEEOT_, symObjAddr: 0x1998, symBinAddr: 0x1000033F0, symSize: 0x24 }
  - { offsetInCU: 0x18C03, offset: 0x18C03, size: 0x8, addend: 0x0, symName: __ZNSt3__122__compressed_pair_elemINS_8equal_toIP7DAGNodeEELi1ELb1EEC2B8ue170006ENS_18__default_init_tagE, symObjAddr: 0x19BC, symBinAddr: 0x100003414, symSize: 0x14 }
  - { offsetInCU: 0x18C37, offset: 0x18C37, size: 0x8, addend: 0x0, symName: __ZNSt3__110unique_ptrIA_PNS_16__hash_node_baseIPNS_11__hash_nodeIP7DAGNodePvEEEENS_25__bucket_list_deallocatorINS_9allocatorIS9_EEEEED2B8ue170006Ev, symObjAddr: 0x19D0, symBinAddr: 0x100003428, symSize: 0x30 }
  - { offsetInCU: 0x18C61, offset: 0x18C61, size: 0x8, addend: 0x0, symName: __ZNSt3__110unique_ptrIA_PNS_16__hash_node_baseIPNS_11__hash_nodeIP7DAGNodePvEEEENS_25__bucket_list_deallocatorINS_9allocatorIS9_EEEEE5resetB8ue170006EDn, symObjAddr: 0x1A00, symBinAddr: 0x100003458, symSize: 0x6C }
  - { offsetInCU: 0x18CA1, offset: 0x18CA1, size: 0x8, addend: 0x0, symName: __ZNSt3__117__compressed_pairIPPNS_16__hash_node_baseIPNS_11__hash_nodeIP7DAGNodePvEEEENS_25__bucket_list_deallocatorINS_9allocatorIS9_EEEEE5firstB8ue170006Ev, symObjAddr: 0x1A6C, symBinAddr: 0x1000034C4, symSize: 0x24 }
  - { offsetInCU: 0x18CC7, offset: 0x18CC7, size: 0x8, addend: 0x0, symName: __ZNSt3__117__compressed_pairIPPNS_16__hash_node_baseIPNS_11__hash_nodeIP7DAGNodePvEEEENS_25__bucket_list_deallocatorINS_9allocatorIS9_EEEEE6secondB8ue170006Ev, symObjAddr: 0x1A90, symBinAddr: 0x1000034E8, symSize: 0x28 }
  - { offsetInCU: 0x18CED, offset: 0x18CED, size: 0x8, addend: 0x0, symName: __ZNSt3__125__bucket_list_deallocatorINS_9allocatorIPNS_16__hash_node_baseIPNS_11__hash_nodeIP7DAGNodePvEEEEEEEclB8ue170006EPSA_, symObjAddr: 0x1AB8, symBinAddr: 0x100003510, symSize: 0x58 }
  - { offsetInCU: 0x18D22, offset: 0x18D22, size: 0x8, addend: 0x0, symName: __ZNSt3__122__compressed_pair_elemIPPNS_16__hash_node_baseIPNS_11__hash_nodeIP7DAGNodePvEEEELi0ELb0EE5__getB8ue170006Ev, symObjAddr: 0x1B10, symBinAddr: 0x100003568, symSize: 0x14 }
  - { offsetInCU: 0x18D48, offset: 0x18D48, size: 0x8, addend: 0x0, symName: __ZNSt3__122__compressed_pair_elemINS_25__bucket_list_deallocatorINS_9allocatorIPNS_16__hash_node_baseIPNS_11__hash_nodeIP7DAGNodePvEEEEEEEELi1ELb0EE5__getB8ue170006Ev, symObjAddr: 0x1B24, symBinAddr: 0x10000357C, symSize: 0x14 }
  - { offsetInCU: 0x18D6E, offset: 0x18D6E, size: 0x8, addend: 0x0, symName: __ZNSt3__116allocator_traitsINS_9allocatorIPNS_16__hash_node_baseIPNS_11__hash_nodeIP7DAGNodePvEEEEEEE10deallocateB8ue170006ERSB_PSA_m, symObjAddr: 0x1B38, symBinAddr: 0x100003590, symSize: 0x34 }
  - { offsetInCU: 0x18DB0, offset: 0x18DB0, size: 0x8, addend: 0x0, symName: __ZNSt3__125__bucket_list_deallocatorINS_9allocatorIPNS_16__hash_node_baseIPNS_11__hash_nodeIP7DAGNodePvEEEEEEE7__allocB8ue170006Ev, symObjAddr: 0x1B6C, symBinAddr: 0x1000035C4, symSize: 0x24 }
  - { offsetInCU: 0x18DD6, offset: 0x18DD6, size: 0x8, addend: 0x0, symName: __ZNSt3__125__bucket_list_deallocatorINS_9allocatorIPNS_16__hash_node_baseIPNS_11__hash_nodeIP7DAGNodePvEEEEEEE4sizeB8ue170006Ev, symObjAddr: 0x1B90, symBinAddr: 0x1000035E8, symSize: 0x24 }
  - { offsetInCU: 0x18DFC, offset: 0x18DFC, size: 0x8, addend: 0x0, symName: __ZNSt3__19allocatorIPNS_16__hash_node_baseIPNS_11__hash_nodeIP7DAGNodePvEEEEE10deallocateB8ue170006EPS9_m, symObjAddr: 0x1BB4, symBinAddr: 0x10000360C, symSize: 0x70 }
  - { offsetInCU: 0x18E3E, offset: 0x18E3E, size: 0x8, addend: 0x0, symName: __ZNSt3__117__compressed_pairImNS_9allocatorIPNS_16__hash_node_baseIPNS_11__hash_nodeIP7DAGNodePvEEEEEEE6secondB8ue170006Ev, symObjAddr: 0x1CAC, symBinAddr: 0x100003704, symSize: 0x24 }
  - { offsetInCU: 0x18E64, offset: 0x18E64, size: 0x8, addend: 0x0, symName: __ZNSt3__122__compressed_pair_elemINS_9allocatorIPNS_16__hash_node_baseIPNS_11__hash_nodeIP7DAGNodePvEEEEEELi1ELb1EE5__getB8ue170006Ev, symObjAddr: 0x1CD0, symBinAddr: 0x100003728, symSize: 0x14 }
  - { offsetInCU: 0x18E8A, offset: 0x18E8A, size: 0x8, addend: 0x0, symName: __ZNSt3__117__compressed_pairImNS_9allocatorIPNS_16__hash_node_baseIPNS_11__hash_nodeIP7DAGNodePvEEEEEEE5firstB8ue170006Ev, symObjAddr: 0x1CE4, symBinAddr: 0x10000373C, symSize: 0x24 }
  - { offsetInCU: 0x18EB0, offset: 0x18EB0, size: 0x8, addend: 0x0, symName: __ZNSt3__122__compressed_pair_elemImLi0ELb0EE5__getB8ue170006Ev, symObjAddr: 0x1D08, symBinAddr: 0x100003760, symSize: 0x14 }
  - { offsetInCU: 0x18ED6, offset: 0x18ED6, size: 0x8, addend: 0x0, symName: __ZNSt3__15stackIP7DAGNodeNS_5dequeIS2_NS_9allocatorIS2_EEEEEC2B8ue170006Ev, symObjAddr: 0x1D1C, symBinAddr: 0x100003774, symSize: 0x2C }
  - { offsetInCU: 0x18F00, offset: 0x18F00, size: 0x8, addend: 0x0, symName: __ZNSt3__15dequeIP7DAGNodeNS_9allocatorIS2_EEEC1B8ue170006Ev, symObjAddr: 0x1D48, symBinAddr: 0x1000037A0, symSize: 0x2C }
  - { offsetInCU: 0x18F2A, offset: 0x18F2A, size: 0x8, addend: 0x0, symName: __ZNSt3__15dequeIP7DAGNodeNS_9allocatorIS2_EEEC2B8ue170006Ev, symObjAddr: 0x1D74, symBinAddr: 0x1000037CC, symSize: 0x84 }
  - { offsetInCU: 0x18F54, offset: 0x18F54, size: 0x8, addend: 0x0, symName: __ZNSt3__114__split_bufferIPP7DAGNodeNS_9allocatorIS3_EEEC1B8ue170006Ev, symObjAddr: 0x1DF8, symBinAddr: 0x100003850, symSize: 0x2C }
  - { offsetInCU: 0x18F7E, offset: 0x18F7E, size: 0x8, addend: 0x0, symName: __ZNSt3__117__compressed_pairImNS_9allocatorIP7DAGNodeEEEC1B8ue170006IiNS_18__default_init_tagEEEOT_OT0_, symObjAddr: 0x1E24, symBinAddr: 0x10000387C, symSize: 0x3C }
  - { offsetInCU: 0x18FD6, offset: 0x18FD6, size: 0x8, addend: 0x0, symName: __ZNKSt3__15dequeIP7DAGNodeNS_9allocatorIS2_EEE14__annotate_newB8ue170006Em, symObjAddr: 0x1E60, symBinAddr: 0x1000038B8, symSize: 0xDC }
  - { offsetInCU: 0x1900B, offset: 0x1900B, size: 0x8, addend: 0x0, symName: __ZNSt3__114__split_bufferIPP7DAGNodeNS_9allocatorIS3_EEED1Ev, symObjAddr: 0x1F3C, symBinAddr: 0x100003994, symSize: 0x2C }
  - { offsetInCU: 0x19037, offset: 0x19037, size: 0x8, addend: 0x0, symName: __ZNSt3__114__split_bufferIPP7DAGNodeNS_9allocatorIS3_EEEC2B8ue170006Ev, symObjAddr: 0x1F68, symBinAddr: 0x1000039C0, symSize: 0x48 }
  - { offsetInCU: 0x19061, offset: 0x19061, size: 0x8, addend: 0x0, symName: __ZNSt3__117__compressed_pairIPPP7DAGNodeNS_9allocatorIS3_EEEC1B8ue170006IDnNS_18__default_init_tagEEEOT_OT0_, symObjAddr: 0x1FB0, symBinAddr: 0x100003A08, symSize: 0x3C }
  - { offsetInCU: 0x190B9, offset: 0x190B9, size: 0x8, addend: 0x0, symName: __ZNSt3__117__compressed_pairIPPP7DAGNodeNS_9allocatorIS3_EEEC2B8ue170006IDnNS_18__default_init_tagEEEOT_OT0_, symObjAddr: 0x1FEC, symBinAddr: 0x100003A44, symSize: 0x40 }
  - { offsetInCU: 0x19111, offset: 0x19111, size: 0x8, addend: 0x0, symName: __ZNSt3__122__compressed_pair_elemIPPP7DAGNodeLi0ELb0EEC2B8ue170006IDnvEEOT_, symObjAddr: 0x202C, symBinAddr: 0x100003A84, symSize: 0x1C }
  - { offsetInCU: 0x19153, offset: 0x19153, size: 0x8, addend: 0x0, symName: __ZNSt3__122__compressed_pair_elemINS_9allocatorIPP7DAGNodeEELi1ELb1EEC2B8ue170006ENS_18__default_init_tagE, symObjAddr: 0x2048, symBinAddr: 0x100003AA0, symSize: 0x2C }
  - { offsetInCU: 0x19187, offset: 0x19187, size: 0x8, addend: 0x0, symName: __ZNSt3__19allocatorIPP7DAGNodeEC2B8ue170006Ev, symObjAddr: 0x2074, symBinAddr: 0x100003ACC, symSize: 0x2C }
  - { offsetInCU: 0x191B1, offset: 0x191B1, size: 0x8, addend: 0x0, symName: __ZNSt3__116__non_trivial_ifILb1ENS_9allocatorIPP7DAGNodeEEEC2B8ue170006Ev, symObjAddr: 0x20A0, symBinAddr: 0x100003AF8, symSize: 0x14 }
  - { offsetInCU: 0x191DB, offset: 0x191DB, size: 0x8, addend: 0x0, symName: __ZNSt3__117__compressed_pairImNS_9allocatorIP7DAGNodeEEEC2B8ue170006IiNS_18__default_init_tagEEEOT_OT0_, symObjAddr: 0x20B4, symBinAddr: 0x100003B0C, symSize: 0x40 }
  - { offsetInCU: 0x19233, offset: 0x19233, size: 0x8, addend: 0x0, symName: __ZNKSt3__15dequeIP7DAGNodeNS_9allocatorIS2_EEE18__annotate_from_toB8ue170006EmmNS5_22__asan_annotation_typeENS5_23__asan_annotation_placeE, symObjAddr: 0x20F4, symBinAddr: 0x100003B4C, symSize: 0x580 }
  - { offsetInCU: 0x193F1, offset: 0x193F1, size: 0x8, addend: 0x0, symName: __ZNKSt3__114__split_bufferIPP7DAGNodeNS_9allocatorIS3_EEE4sizeB8ue170006Ev, symObjAddr: 0x2674, symBinAddr: 0x1000040CC, symSize: 0x28 }
  - { offsetInCU: 0x19417, offset: 0x19417, size: 0x8, addend: 0x0, symName: __ZNKSt3__114__split_bufferIPP7DAGNodeNS_9allocatorIS3_EEE5beginB8ue170006Ev, symObjAddr: 0x269C, symBinAddr: 0x1000040F4, symSize: 0x18 }
  - { offsetInCU: 0x1943D, offset: 0x1943D, size: 0x8, addend: 0x0, symName: __ZNKSt3__15dequeIP7DAGNodeNS_9allocatorIS2_EEE4sizeB8ue170006Ev, symObjAddr: 0x26B4, symBinAddr: 0x10000410C, symSize: 0x28 }
  - { offsetInCU: 0x19463, offset: 0x19463, size: 0x8, addend: 0x0, symName: __ZNKSt3__15dequeIP7DAGNodeNS_9allocatorIS2_EEE5emptyB8ue170006Ev, symObjAddr: 0x26DC, symBinAddr: 0x100004134, symSize: 0x30 }
  - { offsetInCU: 0x19489, offset: 0x19489, size: 0x8, addend: 0x0, symName: __ZNKSt3__15dequeIP7DAGNodeNS_9allocatorIS2_EEE44__annotate_double_ended_contiguous_containerB8ue170006EPKvS7_S7_S7_S7_S7_, symObjAddr: 0x2720, symBinAddr: 0x100004178, symSize: 0x28 }
  - { offsetInCU: 0x194F1, offset: 0x194F1, size: 0x8, addend: 0x0, symName: __ZNKSt3__15dequeIP7DAGNodeNS_9allocatorIS2_EEE6__sizeB8ue170006Ev, symObjAddr: 0x2748, symBinAddr: 0x1000041A0, symSize: 0x28 }
  - { offsetInCU: 0x19517, offset: 0x19517, size: 0x8, addend: 0x0, symName: __ZNKSt3__117__compressed_pairImNS_9allocatorIP7DAGNodeEEE5firstB8ue170006Ev, symObjAddr: 0x2770, symBinAddr: 0x1000041C8, symSize: 0x24 }
  - { offsetInCU: 0x1953D, offset: 0x1953D, size: 0x8, addend: 0x0, symName: __ZNKSt3__122__compressed_pair_elemImLi0ELb0EE5__getB8ue170006Ev, symObjAddr: 0x2794, symBinAddr: 0x1000041EC, symSize: 0x14 }
  - { offsetInCU: 0x19563, offset: 0x19563, size: 0x8, addend: 0x0, symName: __ZNSt3__114__split_bufferIPP7DAGNodeNS_9allocatorIS3_EEED2Ev, symObjAddr: 0x27A8, symBinAddr: 0x100004200, symSize: 0x80 }
  - { offsetInCU: 0x1958F, offset: 0x1958F, size: 0x8, addend: 0x0, symName: __ZNSt3__114__split_bufferIPP7DAGNodeNS_9allocatorIS3_EEE5clearB8ue170006Ev, symObjAddr: 0x2828, symBinAddr: 0x100004280, symSize: 0x28 }
  - { offsetInCU: 0x195B5, offset: 0x195B5, size: 0x8, addend: 0x0, symName: __ZNSt3__116allocator_traitsINS_9allocatorIPP7DAGNodeEEE10deallocateB8ue170006ERS5_PS4_m, symObjAddr: 0x2850, symBinAddr: 0x1000042A8, symSize: 0x34 }
  - { offsetInCU: 0x195F7, offset: 0x195F7, size: 0x8, addend: 0x0, symName: __ZNSt3__114__split_bufferIPP7DAGNodeNS_9allocatorIS3_EEE7__allocB8ue170006Ev, symObjAddr: 0x2884, symBinAddr: 0x1000042DC, symSize: 0x28 }
  - { offsetInCU: 0x1961D, offset: 0x1961D, size: 0x8, addend: 0x0, symName: __ZNKSt3__114__split_bufferIPP7DAGNodeNS_9allocatorIS3_EEE8capacityB8ue170006Ev, symObjAddr: 0x28AC, symBinAddr: 0x100004304, symSize: 0x40 }
  - { offsetInCU: 0x19643, offset: 0x19643, size: 0x8, addend: 0x0, symName: __ZNSt3__114__split_bufferIPP7DAGNodeNS_9allocatorIS3_EEE17__destruct_at_endB8ue170006EPS3_, symObjAddr: 0x28EC, symBinAddr: 0x100004344, symSize: 0x2C }
  - { offsetInCU: 0x19677, offset: 0x19677, size: 0x8, addend: 0x0, symName: __ZNSt3__114__split_bufferIPP7DAGNodeNS_9allocatorIS3_EEE17__destruct_at_endB8ue170006EPS3_NS_17integral_constantIbLb0EEE, symObjAddr: 0x2918, symBinAddr: 0x100004370, symSize: 0x94 }
  - { offsetInCU: 0x196B7, offset: 0x196B7, size: 0x8, addend: 0x0, symName: __ZNSt3__116allocator_traitsINS_9allocatorIPP7DAGNodeEEE7destroyB8ue170006IS4_vEEvRS5_PT_, symObjAddr: 0x29AC, symBinAddr: 0x100004404, symSize: 0x2C }
  - { offsetInCU: 0x196F4, offset: 0x196F4, size: 0x8, addend: 0x0, symName: __ZNSt3__19allocatorIPP7DAGNodeE7destroyB8ue170006EPS3_, symObjAddr: 0x29EC, symBinAddr: 0x100004444, symSize: 0x14 }
  - { offsetInCU: 0x19728, offset: 0x19728, size: 0x8, addend: 0x0, symName: __ZNSt3__19allocatorIPP7DAGNodeE10deallocateB8ue170006EPS3_m, symObjAddr: 0x2A00, symBinAddr: 0x100004458, symSize: 0x70 }
  - { offsetInCU: 0x1976A, offset: 0x1976A, size: 0x8, addend: 0x0, symName: __ZNSt3__117__compressed_pairIPPP7DAGNodeNS_9allocatorIS3_EEE6secondB8ue170006Ev, symObjAddr: 0x2A70, symBinAddr: 0x1000044C8, symSize: 0x24 }
  - { offsetInCU: 0x19790, offset: 0x19790, size: 0x8, addend: 0x0, symName: __ZNSt3__122__compressed_pair_elemINS_9allocatorIPP7DAGNodeEELi1ELb1EE5__getB8ue170006Ev, symObjAddr: 0x2A94, symBinAddr: 0x1000044EC, symSize: 0x14 }
  - { offsetInCU: 0x197B6, offset: 0x197B6, size: 0x8, addend: 0x0, symName: __ZNKSt3__114__split_bufferIPP7DAGNodeNS_9allocatorIS3_EEE9__end_capB8ue170006Ev, symObjAddr: 0x2AA8, symBinAddr: 0x100004500, symSize: 0x28 }
  - { offsetInCU: 0x197DC, offset: 0x197DC, size: 0x8, addend: 0x0, symName: __ZNKSt3__117__compressed_pairIPPP7DAGNodeNS_9allocatorIS3_EEE5firstB8ue170006Ev, symObjAddr: 0x2AD0, symBinAddr: 0x100004528, symSize: 0x24 }
  - { offsetInCU: 0x19802, offset: 0x19802, size: 0x8, addend: 0x0, symName: __ZNKSt3__122__compressed_pair_elemIPPP7DAGNodeLi0ELb0EE5__getB8ue170006Ev, symObjAddr: 0x2AF4, symBinAddr: 0x10000454C, symSize: 0x14 }
  - { offsetInCU: 0x19828, offset: 0x19828, size: 0x8, addend: 0x0, symName: __ZNSt3__112__hash_tableINS_17__hash_value_typeINS_12basic_stringIcNS_11char_traitsIcEENS_9allocatorIcEEEEP7DAGNodeEENS_22__unordered_map_hasherIS7_SA_NS_4hashIS7_EENS_8equal_toIS7_EELb1EEENS_21__unordered_map_equalIS7_SA_SF_SD_Lb1EEENS5_ISA_EEE5beginEv, symObjAddr: 0x2B08, symBinAddr: 0x100004560, symSize: 0x38 }
  - { offsetInCU: 0x19850, offset: 0x19850, size: 0x8, addend: 0x0, symName: __ZNSt3__119__hash_map_iteratorINS_15__hash_iteratorIPNS_11__hash_nodeINS_17__hash_value_typeINS_12basic_stringIcNS_11char_traitsIcEENS_9allocatorIcEEEEP7DAGNodeEEPvEEEEEC1B8ue170006ESG_, symObjAddr: 0x2B40, symBinAddr: 0x100004598, symSize: 0x34 }
  - { offsetInCU: 0x19889, offset: 0x19889, size: 0x8, addend: 0x0, symName: __ZNSt3__117__compressed_pairINS_16__hash_node_baseIPNS_11__hash_nodeINS_17__hash_value_typeINS_12basic_stringIcNS_11char_traitsIcEENS_9allocatorIcEEEEP7DAGNodeEEPvEEEENS7_ISE_EEE5firstB8ue170006Ev, symObjAddr: 0x2B74, symBinAddr: 0x1000045CC, symSize: 0x24 }
  - { offsetInCU: 0x198AF, offset: 0x198AF, size: 0x8, addend: 0x0, symName: __ZNSt3__115__hash_iteratorIPNS_11__hash_nodeINS_17__hash_value_typeINS_12basic_stringIcNS_11char_traitsIcEENS_9allocatorIcEEEEP7DAGNodeEEPvEEEC1B8ue170006EPNS_16__hash_node_baseISE_EE, symObjAddr: 0x2B98, symBinAddr: 0x1000045F0, symSize: 0x34 }
  - { offsetInCU: 0x198E8, offset: 0x198E8, size: 0x8, addend: 0x0, symName: __ZNSt3__122__compressed_pair_elemINS_16__hash_node_baseIPNS_11__hash_nodeINS_17__hash_value_typeINS_12basic_stringIcNS_11char_traitsIcEENS_9allocatorIcEEEEP7DAGNodeEEPvEEEELi0ELb0EE5__getB8ue170006Ev, symObjAddr: 0x2BCC, symBinAddr: 0x100004624, symSize: 0x14 }
  - { offsetInCU: 0x1990E, offset: 0x1990E, size: 0x8, addend: 0x0, symName: __ZNSt3__115__hash_iteratorIPNS_11__hash_nodeINS_17__hash_value_typeINS_12basic_stringIcNS_11char_traitsIcEENS_9allocatorIcEEEEP7DAGNodeEEPvEEEC2B8ue170006EPNS_16__hash_node_baseISE_EE, symObjAddr: 0x2BE0, symBinAddr: 0x100004638, symSize: 0x20 }
  - { offsetInCU: 0x19947, offset: 0x19947, size: 0x8, addend: 0x0, symName: __ZNSt3__119__hash_map_iteratorINS_15__hash_iteratorIPNS_11__hash_nodeINS_17__hash_value_typeINS_12basic_stringIcNS_11char_traitsIcEENS_9allocatorIcEEEEP7DAGNodeEEPvEEEEEC2B8ue170006ESG_, symObjAddr: 0x2C00, symBinAddr: 0x100004658, symSize: 0x20 }
  - { offsetInCU: 0x19980, offset: 0x19980, size: 0x8, addend: 0x0, symName: __ZNSt3__112__hash_tableINS_17__hash_value_typeINS_12basic_stringIcNS_11char_traitsIcEENS_9allocatorIcEEEEP7DAGNodeEENS_22__unordered_map_hasherIS7_SA_NS_4hashIS7_EENS_8equal_toIS7_EELb1EEENS_21__unordered_map_equalIS7_SA_SF_SD_Lb1EEENS5_ISA_EEE3endEv, symObjAddr: 0x2C20, symBinAddr: 0x100004678, symSize: 0x2C }
  - { offsetInCU: 0x199A8, offset: 0x199A8, size: 0x8, addend: 0x0, symName: __ZNKSt3__115__hash_iteratorIPNS_11__hash_nodeINS_17__hash_value_typeINS_12basic_stringIcNS_11char_traitsIcEENS_9allocatorIcEEEEP7DAGNodeEEPvEEEptB8ue170006Ev, symObjAddr: 0x2CB0, symBinAddr: 0x100004708, symSize: 0x30 }
  - { offsetInCU: 0x199CE, offset: 0x199CE, size: 0x8, addend: 0x0, symName: __ZNSt3__117__hash_value_typeINS_12basic_stringIcNS_11char_traitsIcEENS_9allocatorIcEEEEP7DAGNodeE11__get_valueB8ue170006Ev, symObjAddr: 0x2CE0, symBinAddr: 0x100004738, symSize: 0x14 }
  - { offsetInCU: 0x199F4, offset: 0x199F4, size: 0x8, addend: 0x0, symName: __ZNSt3__114pointer_traitsIPNS_17__hash_value_typeINS_12basic_stringIcNS_11char_traitsIcEENS_9allocatorIcEEEEP7DAGNodeEEE10pointer_toB8ue170006ERSA_, symObjAddr: 0x2CF4, symBinAddr: 0x10000474C, symSize: 0x14 }
  - { offsetInCU: 0x19A17, offset: 0x19A17, size: 0x8, addend: 0x0, symName: __ZNSt3__116__hash_node_baseIPNS_11__hash_nodeINS_17__hash_value_typeINS_12basic_stringIcNS_11char_traitsIcEENS_9allocatorIcEEEEP7DAGNodeEEPvEEE8__upcastB8ue170006Ev, symObjAddr: 0x2D08, symBinAddr: 0x100004760, symSize: 0x24 }
  - { offsetInCU: 0x19A3D, offset: 0x19A3D, size: 0x8, addend: 0x0, symName: __ZNSt3__114pointer_traitsIPNS_16__hash_node_baseIPNS_11__hash_nodeINS_17__hash_value_typeINS_12basic_stringIcNS_11char_traitsIcEENS_9allocatorIcEEEEP7DAGNodeEEPvEEEEE10pointer_toB8ue170006ERSG_, symObjAddr: 0x2D2C, symBinAddr: 0x100004784, symSize: 0x14 }
  - { offsetInCU: 0x19A60, offset: 0x19A60, size: 0x8, addend: 0x0, symName: __ZNSt3__115__hash_iteratorIPNS_11__hash_nodeINS_17__hash_value_typeINS_12basic_stringIcNS_11char_traitsIcEENS_9allocatorIcEEEEP7DAGNodeEEPvEEEppB8ue170006Ev, symObjAddr: 0x2D40, symBinAddr: 0x100004798, symSize: 0x20 }
  - { offsetInCU: 0x19A86, offset: 0x19A86, size: 0x8, addend: 0x0, symName: __ZNSt3__15dequeIP7DAGNodeNS_9allocatorIS2_EEE9push_backERKS2_, symObjAddr: 0x2D60, symBinAddr: 0x1000047B8, symSize: 0xAC }
  - { offsetInCU: 0x19ACC, offset: 0x19ACC, size: 0x8, addend: 0x0, symName: __ZNSt3__15dequeIP7DAGNodeNS_9allocatorIS2_EEE7__allocB8ue170006Ev, symObjAddr: 0x2E0C, symBinAddr: 0x100004864, symSize: 0x28 }
  - { offsetInCU: 0x19AF2, offset: 0x19AF2, size: 0x8, addend: 0x0, symName: __ZNKSt3__15dequeIP7DAGNodeNS_9allocatorIS2_EEE12__back_spareB8ue170006Ev, symObjAddr: 0x2E34, symBinAddr: 0x10000488C, symSize: 0x54 }
  - { offsetInCU: 0x19B18, offset: 0x19B18, size: 0x8, addend: 0x0, symName: __ZNSt3__15dequeIP7DAGNodeNS_9allocatorIS2_EEE19__add_back_capacityEv, symObjAddr: 0x2E88, symBinAddr: 0x1000048E0, symSize: 0x364 }
  - { offsetInCU: 0x19BD0, offset: 0x19BD0, size: 0x8, addend: 0x0, symName: __ZNKSt3__15dequeIP7DAGNodeNS_9allocatorIS2_EEE24__annotate_increase_backB8ue170006Em, symObjAddr: 0x31EC, symBinAddr: 0x100004C44, symSize: 0x7C }
  - { offsetInCU: 0x19C05, offset: 0x19C05, size: 0x8, addend: 0x0, symName: __ZNSt3__116allocator_traitsINS_9allocatorIP7DAGNodeEEE9constructB8ue170006IS3_JRKS3_EvEEvRS4_PT_DpOT0_, symObjAddr: 0x3268, symBinAddr: 0x100004CC0, symSize: 0x34 }
  - { offsetInCU: 0x19C5C, offset: 0x19C5C, size: 0x8, addend: 0x0, symName: __ZNSt3__15dequeIP7DAGNodeNS_9allocatorIS2_EEE3endB8ue170006Ev, symObjAddr: 0x329C, symBinAddr: 0x100004CF4, symSize: 0xE0 }
  - { offsetInCU: 0x19CA0, offset: 0x19CA0, size: 0x8, addend: 0x0, symName: __ZNKSt3__116__deque_iteratorIP7DAGNodePS2_RS2_PS3_lLl512EEdeB8ue170006Ev, symObjAddr: 0x337C, symBinAddr: 0x100004DD4, symSize: 0x18 }
  - { offsetInCU: 0x19CC6, offset: 0x19CC6, size: 0x8, addend: 0x0, symName: __ZNSt3__15dequeIP7DAGNodeNS_9allocatorIS2_EEE6__sizeB8ue170006Ev, symObjAddr: 0x3394, symBinAddr: 0x100004DEC, symSize: 0x28 }
  - { offsetInCU: 0x19CEC, offset: 0x19CEC, size: 0x8, addend: 0x0, symName: __ZNSt3__117__compressed_pairImNS_9allocatorIP7DAGNodeEEE6secondB8ue170006Ev, symObjAddr: 0x33BC, symBinAddr: 0x100004E14, symSize: 0x24 }
  - { offsetInCU: 0x19D12, offset: 0x19D12, size: 0x8, addend: 0x0, symName: __ZNSt3__122__compressed_pair_elemINS_9allocatorIP7DAGNodeEELi1ELb1EE5__getB8ue170006Ev, symObjAddr: 0x33E0, symBinAddr: 0x100004E38, symSize: 0x14 }
  - { offsetInCU: 0x19D38, offset: 0x19D38, size: 0x8, addend: 0x0, symName: __ZNKSt3__15dequeIP7DAGNodeNS_9allocatorIS2_EEE10__capacityB8ue170006Ev, symObjAddr: 0x33F4, symBinAddr: 0x100004E4C, symSize: 0x60 }
  - { offsetInCU: 0x19D5E, offset: 0x19D5E, size: 0x8, addend: 0x0, symName: __ZNKSt3__15dequeIP7DAGNodeNS_9allocatorIS2_EEE13__front_spareB8ue170006Ev, symObjAddr: 0x3454, symBinAddr: 0x100004EAC, symSize: 0x18 }
  - { offsetInCU: 0x19D84, offset: 0x19D84, size: 0x8, addend: 0x0, symName: __ZNSt3__114__split_bufferIPP7DAGNodeNS_9allocatorIS3_EEE5frontB8ue170006Ev, symObjAddr: 0x346C, symBinAddr: 0x100004EC4, symSize: 0x18 }
  - { offsetInCU: 0x19DAA, offset: 0x19DAA, size: 0x8, addend: 0x0, symName: __ZNSt3__114__split_bufferIPP7DAGNodeNS_9allocatorIS3_EEE9pop_frontB8ue170006Ev, symObjAddr: 0x3484, symBinAddr: 0x100004EDC, symSize: 0x2C }
  - { offsetInCU: 0x19DD0, offset: 0x19DD0, size: 0x8, addend: 0x0, symName: __ZNSt3__114__split_bufferIPP7DAGNodeNS_9allocatorIS3_EEE9push_backB8ue170006ERKS3_, symObjAddr: 0x34B0, symBinAddr: 0x100004F08, symSize: 0x270 }
  - { offsetInCU: 0x19E49, offset: 0x19E49, size: 0x8, addend: 0x0, symName: __ZNKSt3__114__split_bufferIPP7DAGNodeNS_9allocatorIS3_EEE12__back_spareB8ue170006Ev, symObjAddr: 0x3720, symBinAddr: 0x100005178, symSize: 0x40 }
  - { offsetInCU: 0x19E6F, offset: 0x19E6F, size: 0x8, addend: 0x0, symName: __ZNSt3__114__split_bufferIPP7DAGNodeNS_9allocatorIS3_EEE9push_backEOS3_, symObjAddr: 0x3760, symBinAddr: 0x1000051B8, symSize: 0x270 }
  - { offsetInCU: 0x19EE8, offset: 0x19EE8, size: 0x8, addend: 0x0, symName: __ZNSt3__116allocator_traitsINS_9allocatorIP7DAGNodeEEE8allocateB8ue170006ERS4_m, symObjAddr: 0x39D0, symBinAddr: 0x100005428, symSize: 0x2C }
  - { offsetInCU: 0x19F1B, offset: 0x19F1B, size: 0x8, addend: 0x0, symName: __ZNSt3__114__split_bufferIPP7DAGNodeNS_9allocatorIS3_EEE10push_frontEOS3_, symObjAddr: 0x39FC, symBinAddr: 0x100005454, symSize: 0x26C }
  - { offsetInCU: 0x19F94, offset: 0x19F94, size: 0x8, addend: 0x0, symName: __ZNKSt3__15dequeIP7DAGNodeNS_9allocatorIS2_EEE22__annotate_whole_blockB8ue170006EmNS5_22__asan_annotation_typeE, symObjAddr: 0x3C68, symBinAddr: 0x1000056C0, symSize: 0xAC }
  - { offsetInCU: 0x1A005, offset: 0x1A005, size: 0x8, addend: 0x0, symName: __ZNSt3__114__split_bufferIPP7DAGNodeRNS_9allocatorIS3_EEEC1EmmS6_, symObjAddr: 0x3D40, symBinAddr: 0x100005798, symSize: 0x44 }
  - { offsetInCU: 0x1A060, offset: 0x1A060, size: 0x8, addend: 0x0, symName: __ZNSt3__122__allocator_destructorINS_9allocatorIP7DAGNodeEEEC1B8ue170006ERS4_m, symObjAddr: 0x3D84, symBinAddr: 0x1000057DC, symSize: 0x3C }
  - { offsetInCU: 0x1A114, offset: 0x1A114, size: 0x8, addend: 0x0, symName: __ZNSt3__110unique_ptrIPP7DAGNodeNS_22__allocator_destructorINS_9allocatorIS2_EEEEEC1B8ue170006ILb1EvEES3_NS_16__dependent_typeINS_27__unique_ptr_deleter_sfinaeIS7_EEXT_EE20__good_rval_ref_typeE, symObjAddr: 0x3DC0, symBinAddr: 0x100005818, symSize: 0x3C }
  - { offsetInCU: 0x1A165, offset: 0x1A165, size: 0x8, addend: 0x0, symName: __ZNSt3__114__split_bufferIPP7DAGNodeRNS_9allocatorIS3_EEE9push_backEOS3_, symObjAddr: 0x3DFC, symBinAddr: 0x100005854, symSize: 0x270 }
  - { offsetInCU: 0x1A1DE, offset: 0x1A1DE, size: 0x8, addend: 0x0, symName: __ZNKSt3__110unique_ptrIPP7DAGNodeNS_22__allocator_destructorINS_9allocatorIS2_EEEEE3getB8ue170006Ev, symObjAddr: 0x406C, symBinAddr: 0x100005AC4, symSize: 0x28 }
  - { offsetInCU: 0x1A204, offset: 0x1A204, size: 0x8, addend: 0x0, symName: __ZNSt3__110unique_ptrIPP7DAGNodeNS_22__allocator_destructorINS_9allocatorIS2_EEEEE7releaseB8ue170006Ev, symObjAddr: 0x4094, symBinAddr: 0x100005AEC, symSize: 0x44 }
  - { offsetInCU: 0x1A239, offset: 0x1A239, size: 0x8, addend: 0x0, symName: __ZNSt3__114__split_bufferIPP7DAGNodeNS_9allocatorIS3_EEE3endB8ue170006Ev, symObjAddr: 0x40D8, symBinAddr: 0x100005B30, symSize: 0x18 }
  - { offsetInCU: 0x1A25F, offset: 0x1A25F, size: 0x8, addend: 0x0, symName: __ZNSt3__114__split_bufferIPP7DAGNodeNS_9allocatorIS3_EEE5beginB8ue170006Ev, symObjAddr: 0x40F0, symBinAddr: 0x100005B48, symSize: 0x18 }
  - { offsetInCU: 0x1A285, offset: 0x1A285, size: 0x8, addend: 0x0, symName: __ZNSt3__114__split_bufferIPP7DAGNodeRNS_9allocatorIS3_EEE10push_frontERKS3_, symObjAddr: 0x4108, symBinAddr: 0x100005B60, symSize: 0x26C }
  - { offsetInCU: 0x1A2FE, offset: 0x1A2FE, size: 0x8, addend: 0x0, symName: __ZNSt3__114__split_bufferIPP7DAGNodeNS_9allocatorIS3_EEE9__end_capB8ue170006Ev, symObjAddr: 0x43B0, symBinAddr: 0x100005E08, symSize: 0x28 }
  - { offsetInCU: 0x1A324, offset: 0x1A324, size: 0x8, addend: 0x0, symName: __ZNSt3__114__split_bufferIPP7DAGNodeRNS_9allocatorIS3_EEE9__end_capB8ue170006Ev, symObjAddr: 0x43D8, symBinAddr: 0x100005E30, symSize: 0x28 }
  - { offsetInCU: 0x1A34A, offset: 0x1A34A, size: 0x8, addend: 0x0, symName: __ZNSt3__110unique_ptrIPP7DAGNodeNS_22__allocator_destructorINS_9allocatorIS2_EEEEED1B8ue170006Ev, symObjAddr: 0x4400, symBinAddr: 0x100005E58, symSize: 0x2C }
  - { offsetInCU: 0x1A374, offset: 0x1A374, size: 0x8, addend: 0x0, symName: __ZNSt3__114__split_bufferIPP7DAGNodeRNS_9allocatorIS3_EEED1Ev, symObjAddr: 0x442C, symBinAddr: 0x100005E84, symSize: 0x2C }
  - { offsetInCU: 0x1A3A0, offset: 0x1A3A0, size: 0x8, addend: 0x0, symName: __ZNSt3__114__split_bufferIPP7DAGNodeNS_9allocatorIS3_EEE19__destruct_at_beginB8ue170006EPS3_, symObjAddr: 0x4458, symBinAddr: 0x100005EB0, symSize: 0x2C }
  - { offsetInCU: 0x1A3D4, offset: 0x1A3D4, size: 0x8, addend: 0x0, symName: __ZNSt3__114__split_bufferIPP7DAGNodeNS_9allocatorIS3_EEE19__destruct_at_beginEPS3_NS_17integral_constantIbLb1EEE, symObjAddr: 0x4484, symBinAddr: 0x100005EDC, symSize: 0x20 }
  - { offsetInCU: 0x1A414, offset: 0x1A414, size: 0x8, addend: 0x0, symName: __ZNSt3__114__split_bufferIPP7DAGNodeRNS_9allocatorIS3_EEE18__construct_at_endINS_13move_iteratorIPS3_EEEENS_9enable_ifIXsr31__has_forward_iterator_categoryIT_EE5valueEvE4typeESD_SD_, symObjAddr: 0x44E4, symBinAddr: 0x100005F3C, symSize: 0x60 }
  - { offsetInCU: 0x1A461, offset: 0x1A461, size: 0x8, addend: 0x0, symName: __ZNSt3__113move_iteratorIPPP7DAGNodeEC1B8ue170006ES4_, symObjAddr: 0x4544, symBinAddr: 0x100005F9C, symSize: 0x34 }
  - { offsetInCU: 0x1A499, offset: 0x1A499, size: 0x8, addend: 0x0, symName: __ZNSt3__116allocator_traitsINS_9allocatorIPP7DAGNodeEEE9constructB8ue170006IS4_JRKS4_EvEEvRS5_PT_DpOT0_, symObjAddr: 0x4578, symBinAddr: 0x100005FD0, symSize: 0x34 }
  - { offsetInCU: 0x1A513, offset: 0x1A513, size: 0x8, addend: 0x0, symName: __ZNKSt3__114__move_trivialclB8ue170006IPP7DAGNodeS4_Li0EEENS_4pairIPT_PT0_EES7_S7_S9_, symObjAddr: 0x4748, symBinAddr: 0x1000061A0, symSize: 0x48 }
  - { offsetInCU: 0x1A57B, offset: 0x1A57B, size: 0x8, addend: 0x0, symName: __ZNSt3__14pairIPPP7DAGNodeS4_EC1B8ue170006ERKS4_S7_, symObjAddr: 0x49C0, symBinAddr: 0x100006418, symSize: 0x3C }
  - { offsetInCU: 0x1A5C1, offset: 0x1A5C1, size: 0x8, addend: 0x0, symName: __ZNSt3__14pairIPPP7DAGNodeS4_EC2B8ue170006ERKS4_S7_, symObjAddr: 0x49FC, symBinAddr: 0x100006454, symSize: 0x34 }
  - { offsetInCU: 0x1A607, offset: 0x1A607, size: 0x8, addend: 0x0, symName: __ZNSt3__118__unwrap_iter_implIPPP7DAGNodeLb1EE8__unwrapB8ue170006ES4_, symObjAddr: 0x4A30, symBinAddr: 0x100006488, symSize: 0x24 }
  - { offsetInCU: 0x1A62A, offset: 0x1A62A, size: 0x8, addend: 0x0, symName: __ZNSt3__118__unwrap_iter_implIPPP7DAGNodeLb1EE8__rewrapB8ue170006ES4_S4_, symObjAddr: 0x4A54, symBinAddr: 0x1000064AC, symSize: 0x50 }
  - { offsetInCU: 0x1A65B, offset: 0x1A65B, size: 0x8, addend: 0x0, symName: __ZNSt3__114__split_bufferIPP7DAGNodeRNS_9allocatorIS3_EEE28__construct_at_end_with_sizeINS_13move_iteratorIPS3_EEEEvT_m, symObjAddr: 0x4AA4, symBinAddr: 0x1000064FC, symSize: 0xE4 }
  - { offsetInCU: 0x1A6C1, offset: 0x1A6C1, size: 0x8, addend: 0x0, symName: __ZNSt3__114__split_bufferIPP7DAGNodeRNS_9allocatorIS3_EEE21_ConstructTransactionC1B8ue170006EPPS3_m, symObjAddr: 0x4BC4, symBinAddr: 0x10000661C, symSize: 0x3C }
  - { offsetInCU: 0x1A707, offset: 0x1A707, size: 0x8, addend: 0x0, symName: __ZNSt3__116allocator_traitsINS_9allocatorIPP7DAGNodeEEE9constructB8ue170006IS4_JS4_EvEEvRS5_PT_DpOT0_, symObjAddr: 0x4C00, symBinAddr: 0x100006658, symSize: 0x34 }
  - { offsetInCU: 0x1A75E, offset: 0x1A75E, size: 0x8, addend: 0x0, symName: __ZNSt3__114__split_bufferIPP7DAGNodeRNS_9allocatorIS3_EEE7__allocB8ue170006Ev, symObjAddr: 0x4C34, symBinAddr: 0x10000668C, symSize: 0x28 }
  - { offsetInCU: 0x1A784, offset: 0x1A784, size: 0x8, addend: 0x0, symName: __ZNKSt3__113move_iteratorIPPP7DAGNodeEdeB8ue170006Ev, symObjAddr: 0x4C5C, symBinAddr: 0x1000066B4, symSize: 0x18 }
  - { offsetInCU: 0x1A7AA, offset: 0x1A7AA, size: 0x8, addend: 0x0, symName: __ZNSt3__113move_iteratorIPPP7DAGNodeEppB8ue170006Ev, symObjAddr: 0x4C74, symBinAddr: 0x1000066CC, symSize: 0x20 }
  - { offsetInCU: 0x1A7D0, offset: 0x1A7D0, size: 0x8, addend: 0x0, symName: __ZNSt3__114__split_bufferIPP7DAGNodeRNS_9allocatorIS3_EEE21_ConstructTransactionD1B8ue170006Ev, symObjAddr: 0x4C94, symBinAddr: 0x1000066EC, symSize: 0x2C }
  - { offsetInCU: 0x1A7FA, offset: 0x1A7FA, size: 0x8, addend: 0x0, symName: __ZNSt3__114__split_bufferIPP7DAGNodeRNS_9allocatorIS3_EEE21_ConstructTransactionC2B8ue170006EPPS3_m, symObjAddr: 0x4CC0, symBinAddr: 0x100006718, symSize: 0x44 }
  - { offsetInCU: 0x1A840, offset: 0x1A840, size: 0x8, addend: 0x0, symName: __ZNSt3__19allocatorIPP7DAGNodeE9constructB8ue170006IS3_JS3_EEEvPT_DpOT0_, symObjAddr: 0x4D04, symBinAddr: 0x10000675C, symSize: 0x28 }
  - { offsetInCU: 0x1A896, offset: 0x1A896, size: 0x8, addend: 0x0, symName: __ZNSt3__117__compressed_pairIPPP7DAGNodeRNS_9allocatorIS3_EEE6secondB8ue170006Ev, symObjAddr: 0x4D2C, symBinAddr: 0x100006784, symSize: 0x28 }
  - { offsetInCU: 0x1A8BC, offset: 0x1A8BC, size: 0x8, addend: 0x0, symName: __ZNSt3__122__compressed_pair_elemIRNS_9allocatorIPP7DAGNodeEELi1ELb0EE5__getB8ue170006Ev, symObjAddr: 0x4D54, symBinAddr: 0x1000067AC, symSize: 0x18 }
  - { offsetInCU: 0x1A8E2, offset: 0x1A8E2, size: 0x8, addend: 0x0, symName: __ZNSt3__114__split_bufferIPP7DAGNodeRNS_9allocatorIS3_EEE21_ConstructTransactionD2B8ue170006Ev, symObjAddr: 0x4D6C, symBinAddr: 0x1000067C4, symSize: 0x20 }
  - { offsetInCU: 0x1A90C, offset: 0x1A90C, size: 0x8, addend: 0x0, symName: __ZNKSt3__113move_iteratorIPPP7DAGNodeE4baseB8ue170006Ev, symObjAddr: 0x4E04, symBinAddr: 0x10000685C, symSize: 0x18 }
  - { offsetInCU: 0x1A932, offset: 0x1A932, size: 0x8, addend: 0x0, symName: __ZNSt3__113move_iteratorIPPP7DAGNodeEC2B8ue170006ES4_, symObjAddr: 0x4E1C, symBinAddr: 0x100006874, symSize: 0x20 }
  - { offsetInCU: 0x1A96A, offset: 0x1A96A, size: 0x8, addend: 0x0, symName: __ZNSt3__19allocatorIPP7DAGNodeE9constructB8ue170006IS3_JRKS3_EEEvPT_DpOT0_, symObjAddr: 0x4E3C, symBinAddr: 0x100006894, symSize: 0x28 }
  - { offsetInCU: 0x1A9C0, offset: 0x1A9C0, size: 0x8, addend: 0x0, symName: __ZNSt3__19allocatorIP7DAGNodeE8allocateB8ue170006Em, symObjAddr: 0x4E64, symBinAddr: 0x1000068BC, symSize: 0x84 }
  - { offsetInCU: 0x1A9FE, offset: 0x1A9FE, size: 0x8, addend: 0x0, symName: __ZNSt3__116allocator_traitsINS_9allocatorIP7DAGNodeEEE8max_sizeB8ue170006IS4_vEEmRKS4_, symObjAddr: 0x4EE8, symBinAddr: 0x100006940, symSize: 0x24 }
  - { offsetInCU: 0x1AA2C, offset: 0x1AA2C, size: 0x8, addend: 0x0, symName: __ZNKSt3__19allocatorIP7DAGNodeE8max_sizeB8ue170006Ev, symObjAddr: 0x4F68, symBinAddr: 0x1000069C0, symSize: 0x14 }
  - { offsetInCU: 0x1AA5C, offset: 0x1AA5C, size: 0x8, addend: 0x0, symName: __ZNKSt3__123__move_backward_trivialclB8ue170006IPP7DAGNodeS4_Li0EEENS_4pairIPT_PT0_EES7_S7_S9_, symObjAddr: 0x511C, symBinAddr: 0x100006B74, symSize: 0x48 }
  - { offsetInCU: 0x1AAC4, offset: 0x1AAC4, size: 0x8, addend: 0x0, symName: __ZNKSt3__15dequeIP7DAGNodeNS_9allocatorIS2_EEE23__annotate_poison_blockB8ue170006EPKvS7_, symObjAddr: 0x522C, symBinAddr: 0x100006C84, symSize: 0x44 }
  - { offsetInCU: 0x1AB12, offset: 0x1AB12, size: 0x8, addend: 0x0, symName: __ZNKSt3__16__lessIvvEclB8ue170006ImmEEbRKT_RKT0_, symObjAddr: 0x52C4, symBinAddr: 0x100006D1C, symSize: 0x34 }
  - { offsetInCU: 0x1AB66, offset: 0x1AB66, size: 0x8, addend: 0x0, symName: __ZNSt3__114__split_bufferIPP7DAGNodeRNS_9allocatorIS3_EEEC2EmmS6_, symObjAddr: 0x52F8, symBinAddr: 0x100006D50, symSize: 0xD4 }
  - { offsetInCU: 0x1ABDA, offset: 0x1ABDA, size: 0x8, addend: 0x0, symName: __ZNSt3__117__compressed_pairIPPP7DAGNodeRNS_9allocatorIS3_EEEC1B8ue170006IDnS7_EEOT_OT0_, symObjAddr: 0x53CC, symBinAddr: 0x100006E24, symSize: 0x3C }
  - { offsetInCU: 0x1AC32, offset: 0x1AC32, size: 0x8, addend: 0x0, symName: __ZNSt3__117__compressed_pairIPPP7DAGNodeRNS_9allocatorIS3_EEEC2B8ue170006IDnS7_EEOT_OT0_, symObjAddr: 0x5448, symBinAddr: 0x100006EA0, symSize: 0x48 }
  - { offsetInCU: 0x1AC8A, offset: 0x1AC8A, size: 0x8, addend: 0x0, symName: __ZNSt3__122__compressed_pair_elemIRNS_9allocatorIPP7DAGNodeEELi1ELb0EEC2B8ue170006IS6_vEEOT_, symObjAddr: 0x5490, symBinAddr: 0x100006EE8, symSize: 0x20 }
  - { offsetInCU: 0x1ACCC, offset: 0x1ACCC, size: 0x8, addend: 0x0, symName: __ZNSt3__19allocatorIPP7DAGNodeE8allocateB8ue170006Em, symObjAddr: 0x54B0, symBinAddr: 0x100006F08, symSize: 0x84 }
  - { offsetInCU: 0x1AD0A, offset: 0x1AD0A, size: 0x8, addend: 0x0, symName: __ZNSt3__116allocator_traitsINS_9allocatorIPP7DAGNodeEEE8max_sizeB8ue170006IS5_vEEmRKS5_, symObjAddr: 0x5534, symBinAddr: 0x100006F8C, symSize: 0x24 }
  - { offsetInCU: 0x1AD38, offset: 0x1AD38, size: 0x8, addend: 0x0, symName: __ZNKSt3__19allocatorIPP7DAGNodeE8max_sizeB8ue170006Ev, symObjAddr: 0x5558, symBinAddr: 0x100006FB0, symSize: 0x14 }
  - { offsetInCU: 0x1AD5E, offset: 0x1AD5E, size: 0x8, addend: 0x0, symName: __ZNSt3__122__allocator_destructorINS_9allocatorIP7DAGNodeEEEC2B8ue170006ERS4_m, symObjAddr: 0x556C, symBinAddr: 0x100006FC4, symSize: 0x2C }
  - { offsetInCU: 0x1ADA4, offset: 0x1ADA4, size: 0x8, addend: 0x0, symName: __ZNSt3__110unique_ptrIPP7DAGNodeNS_22__allocator_destructorINS_9allocatorIS2_EEEEEC2B8ue170006ILb1EvEES3_NS_16__dependent_typeINS_27__unique_ptr_deleter_sfinaeIS7_EEXT_EE20__good_rval_ref_typeE, symObjAddr: 0x5598, symBinAddr: 0x100006FF0, symSize: 0x5C }
  - { offsetInCU: 0x1ADF5, offset: 0x1ADF5, size: 0x8, addend: 0x0, symName: __ZNSt3__117__compressed_pairIPP7DAGNodeNS_22__allocator_destructorINS_9allocatorIS2_EEEEEC1B8ue170006IRS3_S7_EEOT_OT0_, symObjAddr: 0x55F4, symBinAddr: 0x10000704C, symSize: 0x3C }
  - { offsetInCU: 0x1AE4D, offset: 0x1AE4D, size: 0x8, addend: 0x0, symName: __ZNSt3__117__compressed_pairIPP7DAGNodeNS_22__allocator_destructorINS_9allocatorIS2_EEEEEC2B8ue170006IRS3_S7_EEOT_OT0_, symObjAddr: 0x5630, symBinAddr: 0x100007088, symSize: 0x48 }
  - { offsetInCU: 0x1AEA5, offset: 0x1AEA5, size: 0x8, addend: 0x0, symName: __ZNSt3__122__compressed_pair_elemIPP7DAGNodeLi0ELb0EEC2B8ue170006IRS3_vEEOT_, symObjAddr: 0x5678, symBinAddr: 0x1000070D0, symSize: 0x24 }
  - { offsetInCU: 0x1AEE7, offset: 0x1AEE7, size: 0x8, addend: 0x0, symName: __ZNSt3__122__compressed_pair_elemINS_22__allocator_destructorINS_9allocatorIP7DAGNodeEEEELi1ELb0EEC2B8ue170006IS6_vEEOT_, symObjAddr: 0x569C, symBinAddr: 0x1000070F4, symSize: 0x24 }
  - { offsetInCU: 0x1AF29, offset: 0x1AF29, size: 0x8, addend: 0x0, symName: __ZNKSt3__117__compressed_pairIPP7DAGNodeNS_22__allocator_destructorINS_9allocatorIS2_EEEEE5firstB8ue170006Ev, symObjAddr: 0x56C0, symBinAddr: 0x100007118, symSize: 0x24 }
  - { offsetInCU: 0x1AF4F, offset: 0x1AF4F, size: 0x8, addend: 0x0, symName: __ZNKSt3__122__compressed_pair_elemIPP7DAGNodeLi0ELb0EE5__getB8ue170006Ev, symObjAddr: 0x56E4, symBinAddr: 0x10000713C, symSize: 0x14 }
  - { offsetInCU: 0x1AF75, offset: 0x1AF75, size: 0x8, addend: 0x0, symName: __ZNSt3__117__compressed_pairIPP7DAGNodeNS_22__allocator_destructorINS_9allocatorIS2_EEEEE5firstB8ue170006Ev, symObjAddr: 0x56F8, symBinAddr: 0x100007150, symSize: 0x24 }
  - { offsetInCU: 0x1AF9B, offset: 0x1AF9B, size: 0x8, addend: 0x0, symName: __ZNSt3__122__compressed_pair_elemIPP7DAGNodeLi0ELb0EE5__getB8ue170006Ev, symObjAddr: 0x571C, symBinAddr: 0x100007174, symSize: 0x14 }
  - { offsetInCU: 0x1AFC1, offset: 0x1AFC1, size: 0x8, addend: 0x0, symName: __ZNSt3__117__compressed_pairIPPP7DAGNodeNS_9allocatorIS3_EEE5firstB8ue170006Ev, symObjAddr: 0x5730, symBinAddr: 0x100007188, symSize: 0x24 }
  - { offsetInCU: 0x1AFE7, offset: 0x1AFE7, size: 0x8, addend: 0x0, symName: __ZNSt3__122__compressed_pair_elemIPPP7DAGNodeLi0ELb0EE5__getB8ue170006Ev, symObjAddr: 0x5754, symBinAddr: 0x1000071AC, symSize: 0x14 }
  - { offsetInCU: 0x1B00D, offset: 0x1B00D, size: 0x8, addend: 0x0, symName: __ZNSt3__117__compressed_pairIPPP7DAGNodeRNS_9allocatorIS3_EEE5firstB8ue170006Ev, symObjAddr: 0x5768, symBinAddr: 0x1000071C0, symSize: 0x24 }
  - { offsetInCU: 0x1B033, offset: 0x1B033, size: 0x8, addend: 0x0, symName: __ZNSt3__110unique_ptrIPP7DAGNodeNS_22__allocator_destructorINS_9allocatorIS2_EEEEED2B8ue170006Ev, symObjAddr: 0x578C, symBinAddr: 0x1000071E4, symSize: 0x30 }
  - { offsetInCU: 0x1B05D, offset: 0x1B05D, size: 0x8, addend: 0x0, symName: __ZNSt3__110unique_ptrIPP7DAGNodeNS_22__allocator_destructorINS_9allocatorIS2_EEEEE5resetB8ue170006ES3_, symObjAddr: 0x57BC, symBinAddr: 0x100007214, symSize: 0x78 }
  - { offsetInCU: 0x1B0A1, offset: 0x1B0A1, size: 0x8, addend: 0x0, symName: __ZNSt3__117__compressed_pairIPP7DAGNodeNS_22__allocator_destructorINS_9allocatorIS2_EEEEE6secondB8ue170006Ev, symObjAddr: 0x5834, symBinAddr: 0x10000728C, symSize: 0x28 }
  - { offsetInCU: 0x1B0C7, offset: 0x1B0C7, size: 0x8, addend: 0x0, symName: __ZNSt3__122__allocator_destructorINS_9allocatorIP7DAGNodeEEEclB8ue170006EPS3_, symObjAddr: 0x585C, symBinAddr: 0x1000072B4, symSize: 0x34 }
  - { offsetInCU: 0x1B0FB, offset: 0x1B0FB, size: 0x8, addend: 0x0, symName: __ZNSt3__122__compressed_pair_elemINS_22__allocator_destructorINS_9allocatorIP7DAGNodeEEEELi1ELb0EE5__getB8ue170006Ev, symObjAddr: 0x5890, symBinAddr: 0x1000072E8, symSize: 0x14 }
  - { offsetInCU: 0x1B121, offset: 0x1B121, size: 0x8, addend: 0x0, symName: __ZNSt3__116allocator_traitsINS_9allocatorIP7DAGNodeEEE10deallocateB8ue170006ERS4_PS3_m, symObjAddr: 0x58A4, symBinAddr: 0x1000072FC, symSize: 0x34 }
  - { offsetInCU: 0x1B163, offset: 0x1B163, size: 0x8, addend: 0x0, symName: __ZNSt3__19allocatorIP7DAGNodeE10deallocateB8ue170006EPS2_m, symObjAddr: 0x58D8, symBinAddr: 0x100007330, symSize: 0x70 }
  - { offsetInCU: 0x1B1A5, offset: 0x1B1A5, size: 0x8, addend: 0x0, symName: __ZNSt3__114__split_bufferIPP7DAGNodeRNS_9allocatorIS3_EEED2Ev, symObjAddr: 0x5948, symBinAddr: 0x1000073A0, symSize: 0x80 }
  - { offsetInCU: 0x1B1D1, offset: 0x1B1D1, size: 0x8, addend: 0x0, symName: __ZNSt3__114__split_bufferIPP7DAGNodeRNS_9allocatorIS3_EEE5clearB8ue170006Ev, symObjAddr: 0x59C8, symBinAddr: 0x100007420, symSize: 0x28 }
  - { offsetInCU: 0x1B1F7, offset: 0x1B1F7, size: 0x8, addend: 0x0, symName: __ZNKSt3__114__split_bufferIPP7DAGNodeRNS_9allocatorIS3_EEE8capacityB8ue170006Ev, symObjAddr: 0x59F0, symBinAddr: 0x100007448, symSize: 0x40 }
  - { offsetInCU: 0x1B21D, offset: 0x1B21D, size: 0x8, addend: 0x0, symName: __ZNSt3__114__split_bufferIPP7DAGNodeRNS_9allocatorIS3_EEE17__destruct_at_endB8ue170006EPS3_, symObjAddr: 0x5A30, symBinAddr: 0x100007488, symSize: 0x2C }
  - { offsetInCU: 0x1B251, offset: 0x1B251, size: 0x8, addend: 0x0, symName: __ZNSt3__114__split_bufferIPP7DAGNodeRNS_9allocatorIS3_EEE17__destruct_at_endB8ue170006EPS3_NS_17integral_constantIbLb0EEE, symObjAddr: 0x5A5C, symBinAddr: 0x1000074B4, symSize: 0x94 }
  - { offsetInCU: 0x1B291, offset: 0x1B291, size: 0x8, addend: 0x0, symName: __ZNKSt3__114__split_bufferIPP7DAGNodeRNS_9allocatorIS3_EEE9__end_capB8ue170006Ev, symObjAddr: 0x5AF0, symBinAddr: 0x100007548, symSize: 0x28 }
  - { offsetInCU: 0x1B2B7, offset: 0x1B2B7, size: 0x8, addend: 0x0, symName: __ZNKSt3__117__compressed_pairIPPP7DAGNodeRNS_9allocatorIS3_EEE5firstB8ue170006Ev, symObjAddr: 0x5B18, symBinAddr: 0x100007570, symSize: 0x24 }
  - { offsetInCU: 0x1B2DD, offset: 0x1B2DD, size: 0x8, addend: 0x0, symName: __ZNSt3__19allocatorIP7DAGNodeE9constructB8ue170006IS2_JRKS2_EEEvPT_DpOT0_, symObjAddr: 0x5B3C, symBinAddr: 0x100007594, symSize: 0x28 }
  - { offsetInCU: 0x1B333, offset: 0x1B333, size: 0x8, addend: 0x0, symName: __ZNKSt3__114__split_bufferIPP7DAGNodeNS_9allocatorIS3_EEE5emptyB8ue170006Ev, symObjAddr: 0x5B64, symBinAddr: 0x1000075BC, symSize: 0x28 }
  - { offsetInCU: 0x1B359, offset: 0x1B359, size: 0x8, addend: 0x0, symName: __ZNSt3__116__deque_iteratorIP7DAGNodePS2_RS2_PS3_lLl512EEC1B8ue170006ES5_S3_, symObjAddr: 0x5B8C, symBinAddr: 0x1000075E4, symSize: 0x3C }
  - { offsetInCU: 0x1B3A1, offset: 0x1B3A1, size: 0x8, addend: 0x0, symName: __ZNSt3__116__deque_iteratorIP7DAGNodePS2_RS2_PS3_lLl512EEC2B8ue170006ES5_S3_, symObjAddr: 0x5BC8, symBinAddr: 0x100007620, symSize: 0x2C }
  - { offsetInCU: 0x1B3E9, offset: 0x1B3E9, size: 0x8, addend: 0x0, symName: __ZNSt3__117__compressed_pairImNS_9allocatorIP7DAGNodeEEE5firstB8ue170006Ev, symObjAddr: 0x5BF4, symBinAddr: 0x10000764C, symSize: 0x24 }
  - { offsetInCU: 0x1B40F, offset: 0x1B40F, size: 0x8, addend: 0x0, symName: __ZNSt3__15dequeIP7DAGNodeNS_9allocatorIS2_EEE4backEv, symObjAddr: 0x5C18, symBinAddr: 0x100007670, symSize: 0x68 }
  - { offsetInCU: 0x1B446, offset: 0x1B446, size: 0x8, addend: 0x0, symName: __ZNSt3__15dequeIP7DAGNodeNS_9allocatorIS2_EEE8pop_backEv, symObjAddr: 0x5C80, symBinAddr: 0x1000076D8, symSize: 0xE0 }
  - { offsetInCU: 0x1B4AA, offset: 0x1B4AA, size: 0x8, addend: 0x0, symName: __ZNSt3__116allocator_traitsINS_9allocatorIP7DAGNodeEEE7destroyB8ue170006IS3_vEEvRS4_PT_, symObjAddr: 0x5D60, symBinAddr: 0x1000077B8, symSize: 0x2C }
  - { offsetInCU: 0x1B4E7, offset: 0x1B4E7, size: 0x8, addend: 0x0, symName: __ZNKSt3__15dequeIP7DAGNodeNS_9allocatorIS2_EEE22__annotate_shrink_backB8ue170006Emm, symObjAddr: 0x5D8C, symBinAddr: 0x1000077E4, symSize: 0x60 }
  - { offsetInCU: 0x1B52B, offset: 0x1B52B, size: 0x8, addend: 0x0, symName: __ZNSt3__15dequeIP7DAGNodeNS_9allocatorIS2_EEE25__maybe_remove_back_spareB8ue170006Eb, symObjAddr: 0x5DEC, symBinAddr: 0x100007844, symSize: 0xE8 }
  - { offsetInCU: 0x1B560, offset: 0x1B560, size: 0x8, addend: 0x0, symName: __ZNSt3__19allocatorIP7DAGNodeE7destroyB8ue170006EPS2_, symObjAddr: 0x5ED4, symBinAddr: 0x10000792C, symSize: 0x14 }
  - { offsetInCU: 0x1B594, offset: 0x1B594, size: 0x8, addend: 0x0, symName: __ZNKSt3__15dequeIP7DAGNodeNS_9allocatorIS2_EEE19__back_spare_blocksB8ue170006Ev, symObjAddr: 0x5EE8, symBinAddr: 0x100007940, symSize: 0x2C }
  - { offsetInCU: 0x1B5BA, offset: 0x1B5BA, size: 0x8, addend: 0x0, symName: __ZNSt3__114__split_bufferIPP7DAGNodeNS_9allocatorIS3_EEE4backB8ue170006Ev, symObjAddr: 0x5F14, symBinAddr: 0x10000796C, symSize: 0x1C }
  - { offsetInCU: 0x1B5E0, offset: 0x1B5E0, size: 0x8, addend: 0x0, symName: __ZNSt3__114__split_bufferIPP7DAGNodeNS_9allocatorIS3_EEE8pop_backB8ue170006Ev, symObjAddr: 0x5F30, symBinAddr: 0x100007988, symSize: 0x2C }
  - { offsetInCU: 0x1B606, offset: 0x1B606, size: 0x8, addend: 0x0, symName: __ZNSt3__112__hash_tableIP7DAGNodeNS_4hashIS2_EENS_8equal_toIS2_EENS_9allocatorIS2_EEE4findIS2_EENS_15__hash_iteratorIPNS_11__hash_nodeIS2_PvEEEERKT_, symObjAddr: 0x5F5C, symBinAddr: 0x1000079B4, symSize: 0x1B4 }
  - { offsetInCU: 0x1B691, offset: 0x1B691, size: 0x8, addend: 0x0, symName: __ZNSt3__121__hash_const_iteratorIPNS_11__hash_nodeIP7DAGNodePvEEEC1B8ue170006ERKNS_15__hash_iteratorIS6_EE, symObjAddr: 0x6110, symBinAddr: 0x100007B68, symSize: 0x34 }
  - { offsetInCU: 0x1B6CA, offset: 0x1B6CA, size: 0x8, addend: 0x0, symName: __ZNSt3__112__hash_tableIP7DAGNodeNS_4hashIS2_EENS_8equal_toIS2_EENS_9allocatorIS2_EEE13hash_functionB8ue170006Ev, symObjAddr: 0x6144, symBinAddr: 0x100007B9C, symSize: 0x28 }
  - { offsetInCU: 0x1B6F0, offset: 0x1B6F0, size: 0x8, addend: 0x0, symName: __ZNKSt3__14hashIP7DAGNodeEclB8ue170006ES2_, symObjAddr: 0x616C, symBinAddr: 0x100007BC4, symSize: 0x5C }
  - { offsetInCU: 0x1B756, offset: 0x1B756, size: 0x8, addend: 0x0, symName: __ZNKSt3__112__hash_tableIP7DAGNodeNS_4hashIS2_EENS_8equal_toIS2_EENS_9allocatorIS2_EEE12bucket_countB8ue170006Ev, symObjAddr: 0x61C8, symBinAddr: 0x100007C20, symSize: 0x28 }
  - { offsetInCU: 0x1B77C, offset: 0x1B77C, size: 0x8, addend: 0x0, symName: __ZNKSt3__110unique_ptrIA_PNS_16__hash_node_baseIPNS_11__hash_nodeIP7DAGNodePvEEEENS_25__bucket_list_deallocatorINS_9allocatorIS9_EEEEEixB8ue170006Em, symObjAddr: 0x6288, symBinAddr: 0x100007CE0, symSize: 0x34 }
  - { offsetInCU: 0x1B7B1, offset: 0x1B7B1, size: 0x8, addend: 0x0, symName: __ZNKSt3__116__hash_node_baseIPNS_11__hash_nodeIP7DAGNodePvEEE6__hashB8ue170006Ev, symObjAddr: 0x62BC, symBinAddr: 0x100007D14, symSize: 0x18 }
  - { offsetInCU: 0x1B7D7, offset: 0x1B7D7, size: 0x8, addend: 0x0, symName: __ZNSt3__112__hash_tableIP7DAGNodeNS_4hashIS2_EENS_8equal_toIS2_EENS_9allocatorIS2_EEE6key_eqB8ue170006Ev, symObjAddr: 0x62D4, symBinAddr: 0x100007D2C, symSize: 0x28 }
  - { offsetInCU: 0x1B7FD, offset: 0x1B7FD, size: 0x8, addend: 0x0, symName: __ZNKSt3__18equal_toIP7DAGNodeEclB8ue170006ERKS2_S5_, symObjAddr: 0x62FC, symBinAddr: 0x100007D54, symSize: 0x34 }
  - { offsetInCU: 0x1B841, offset: 0x1B841, size: 0x8, addend: 0x0, symName: __ZNSt3__116__hash_node_baseIPNS_11__hash_nodeIP7DAGNodePvEEE8__upcastB8ue170006Ev, symObjAddr: 0x6330, symBinAddr: 0x100007D88, symSize: 0x24 }
  - { offsetInCU: 0x1B867, offset: 0x1B867, size: 0x8, addend: 0x0, symName: __ZNSt3__115__hash_iteratorIPNS_11__hash_nodeIP7DAGNodePvEEEC1B8ue170006EPNS_16__hash_node_baseIS6_EE, symObjAddr: 0x6354, symBinAddr: 0x100007DAC, symSize: 0x34 }
  - { offsetInCU: 0x1B8A0, offset: 0x1B8A0, size: 0x8, addend: 0x0, symName: __ZNSt3__112__hash_tableIP7DAGNodeNS_4hashIS2_EENS_8equal_toIS2_EENS_9allocatorIS2_EEE3endEv, symObjAddr: 0x6388, symBinAddr: 0x100007DE0, symSize: 0x2C }
  - { offsetInCU: 0x1B8C8, offset: 0x1B8C8, size: 0x8, addend: 0x0, symName: __ZNSt3__117__compressed_pairImNS_4hashIP7DAGNodeEEE6secondB8ue170006Ev, symObjAddr: 0x63B4, symBinAddr: 0x100007E0C, symSize: 0x24 }
  - { offsetInCU: 0x1B8EE, offset: 0x1B8EE, size: 0x8, addend: 0x0, symName: __ZNSt3__122__compressed_pair_elemINS_4hashIP7DAGNodeEELi1ELb1EE5__getB8ue170006Ev, symObjAddr: 0x63D8, symBinAddr: 0x100007E30, symSize: 0x14 }
  - { offsetInCU: 0x1B914, offset: 0x1B914, size: 0x8, addend: 0x0, symName: __ZNKSt3__121__murmur2_or_cityhashImLm64EEclB8ue170006EPKvm, symObjAddr: 0x63EC, symBinAddr: 0x100007E44, symSize: 0x410 }
  - { offsetInCU: 0x1B9AE, offset: 0x1B9AE, size: 0x8, addend: 0x0, symName: __ZNSt3__121__murmur2_or_cityhashImLm64EE18__hash_len_0_to_16B8ue170006EPKcm, symObjAddr: 0x67FC, symBinAddr: 0x100008254, symSize: 0x1C0 }
  - { offsetInCU: 0x1BA8A, offset: 0x1BA8A, size: 0x8, addend: 0x0, symName: __ZNSt3__121__murmur2_or_cityhashImLm64EE19__hash_len_17_to_32B8ue170006EPKcm, symObjAddr: 0x69BC, symBinAddr: 0x100008414, symSize: 0x130 }
  - { offsetInCU: 0x1BAF3, offset: 0x1BAF3, size: 0x8, addend: 0x0, symName: __ZNSt3__121__murmur2_or_cityhashImLm64EE19__hash_len_33_to_64B8ue170006EPKcm, symObjAddr: 0x6AEC, symBinAddr: 0x100008544, symSize: 0x2B8 }
  - { offsetInCU: 0x1BBA8, offset: 0x1BBA8, size: 0x8, addend: 0x0, symName: __ZNSt3__121__murmur2_or_cityhashImLm64EE13__hash_len_16B8ue170006Emm, symObjAddr: 0x6DC4, symBinAddr: 0x10000881C, symSize: 0x80 }
  - { offsetInCU: 0x1BC03, offset: 0x1BC03, size: 0x8, addend: 0x0, symName: __ZNSt3__121__murmur2_or_cityhashImLm64EE29__weak_hash_len_32_with_seedsB8ue170006EPKcmm, symObjAddr: 0x6E44, symBinAddr: 0x10000889C, symSize: 0x88 }
  - { offsetInCU: 0x1BC42, offset: 0x1BC42, size: 0x8, addend: 0x0, symName: __ZNSt3__121__murmur2_or_cityhashImLm64EE8__rotateB8ue170006Emi, symObjAddr: 0x6ECC, symBinAddr: 0x100008924, symSize: 0x64 }
  - { offsetInCU: 0x1BC73, offset: 0x1BC73, size: 0x8, addend: 0x0, symName: __ZNSt3__14pairImmEaSB8ue170006ERKS1_, symObjAddr: 0x6F30, symBinAddr: 0x100008988, symSize: 0x30 }
  - { offsetInCU: 0x1BCA7, offset: 0x1BCA7, size: 0x8, addend: 0x0, symName: __ZNSt3__121__murmur2_or_cityhashImLm64EE11__shift_mixB8ue170006Em, symObjAddr: 0x6F9C, symBinAddr: 0x1000089F4, symSize: 0x1C }
  - { offsetInCU: 0x1BCCA, offset: 0x1BCCA, size: 0x8, addend: 0x0, symName: __ZNSt3__121__murmur2_or_cityhashImLm64EE22__rotate_by_at_least_1B8ue170006Emi, symObjAddr: 0x6FB8, symBinAddr: 0x100008A10, symSize: 0x38 }
  - { offsetInCU: 0x1BCFB, offset: 0x1BCFB, size: 0x8, addend: 0x0, symName: __ZNSt3__121__murmur2_or_cityhashImLm64EE29__weak_hash_len_32_with_seedsB8ue170006Emmmmmm, symObjAddr: 0x7010, symBinAddr: 0x100008A68, symSize: 0xD8 }
  - { offsetInCU: 0x1BD72, offset: 0x1BD72, size: 0x8, addend: 0x0, symName: __ZNSt3__14pairImmEC1B8ue170006ERKmS3_, symObjAddr: 0x70E8, symBinAddr: 0x100008B40, symSize: 0x3C }
  - { offsetInCU: 0x1BDB8, offset: 0x1BDB8, size: 0x8, addend: 0x0, symName: __ZNSt3__14pairImmEC2B8ue170006ERKmS3_, symObjAddr: 0x7124, symBinAddr: 0x100008B7C, symSize: 0x34 }
  - { offsetInCU: 0x1BDFE, offset: 0x1BDFE, size: 0x8, addend: 0x0, symName: __ZNKSt3__110unique_ptrIA_PNS_16__hash_node_baseIPNS_11__hash_nodeIP7DAGNodePvEEEENS_25__bucket_list_deallocatorINS_9allocatorIS9_EEEEE11get_deleterB8ue170006Ev, symObjAddr: 0x7158, symBinAddr: 0x100008BB0, symSize: 0x24 }
  - { offsetInCU: 0x1BE24, offset: 0x1BE24, size: 0x8, addend: 0x0, symName: __ZNKSt3__125__bucket_list_deallocatorINS_9allocatorIPNS_16__hash_node_baseIPNS_11__hash_nodeIP7DAGNodePvEEEEEEE4sizeB8ue170006Ev, symObjAddr: 0x717C, symBinAddr: 0x100008BD4, symSize: 0x28 }
  - { offsetInCU: 0x1BE4A, offset: 0x1BE4A, size: 0x8, addend: 0x0, symName: __ZNKSt3__117__compressed_pairIPPNS_16__hash_node_baseIPNS_11__hash_nodeIP7DAGNodePvEEEENS_25__bucket_list_deallocatorINS_9allocatorIS9_EEEEE6secondB8ue170006Ev, symObjAddr: 0x71A4, symBinAddr: 0x100008BFC, symSize: 0x28 }
  - { offsetInCU: 0x1BE70, offset: 0x1BE70, size: 0x8, addend: 0x0, symName: __ZNKSt3__122__compressed_pair_elemINS_25__bucket_list_deallocatorINS_9allocatorIPNS_16__hash_node_baseIPNS_11__hash_nodeIP7DAGNodePvEEEEEEEELi1ELb0EE5__getB8ue170006Ev, symObjAddr: 0x71CC, symBinAddr: 0x100008C24, symSize: 0x14 }
  - { offsetInCU: 0x1BE96, offset: 0x1BE96, size: 0x8, addend: 0x0, symName: __ZNKSt3__117__compressed_pairImNS_9allocatorIPNS_16__hash_node_baseIPNS_11__hash_nodeIP7DAGNodePvEEEEEEE5firstB8ue170006Ev, symObjAddr: 0x71E0, symBinAddr: 0x100008C38, symSize: 0x24 }
  - { offsetInCU: 0x1BEBC, offset: 0x1BEBC, size: 0x8, addend: 0x0, symName: __ZNKSt3__117__compressed_pairIPPNS_16__hash_node_baseIPNS_11__hash_nodeIP7DAGNodePvEEEENS_25__bucket_list_deallocatorINS_9allocatorIS9_EEEEE5firstB8ue170006Ev, symObjAddr: 0x7204, symBinAddr: 0x100008C5C, symSize: 0x24 }
  - { offsetInCU: 0x1BEE2, offset: 0x1BEE2, size: 0x8, addend: 0x0, symName: __ZNKSt3__122__compressed_pair_elemIPPNS_16__hash_node_baseIPNS_11__hash_nodeIP7DAGNodePvEEEELi0ELb0EE5__getB8ue170006Ev, symObjAddr: 0x7228, symBinAddr: 0x100008C80, symSize: 0x14 }
  - { offsetInCU: 0x1BF08, offset: 0x1BF08, size: 0x8, addend: 0x0, symName: __ZNSt3__117__compressed_pairIfNS_8equal_toIP7DAGNodeEEE6secondB8ue170006Ev, symObjAddr: 0x723C, symBinAddr: 0x100008C94, symSize: 0x24 }
  - { offsetInCU: 0x1BF2E, offset: 0x1BF2E, size: 0x8, addend: 0x0, symName: __ZNSt3__122__compressed_pair_elemINS_8equal_toIP7DAGNodeEELi1ELb1EE5__getB8ue170006Ev, symObjAddr: 0x7260, symBinAddr: 0x100008CB8, symSize: 0x14 }
  - { offsetInCU: 0x1BF54, offset: 0x1BF54, size: 0x8, addend: 0x0, symName: __ZNSt3__114pointer_traitsIPNS_16__hash_node_baseIPNS_11__hash_nodeIP7DAGNodePvEEEEE10pointer_toB8ue170006ERS8_, symObjAddr: 0x7274, symBinAddr: 0x100008CCC, symSize: 0x14 }
  - { offsetInCU: 0x1BF77, offset: 0x1BF77, size: 0x8, addend: 0x0, symName: __ZNSt3__115__hash_iteratorIPNS_11__hash_nodeIP7DAGNodePvEEEC2B8ue170006EPNS_16__hash_node_baseIS6_EE, symObjAddr: 0x7288, symBinAddr: 0x100008CE0, symSize: 0x20 }
  - { offsetInCU: 0x1BFB0, offset: 0x1BFB0, size: 0x8, addend: 0x0, symName: __ZNSt3__121__hash_const_iteratorIPNS_11__hash_nodeIP7DAGNodePvEEEC2B8ue170006ERKNS_15__hash_iteratorIS6_EE, symObjAddr: 0x72A8, symBinAddr: 0x100008D00, symSize: 0x24 }
  - { offsetInCU: 0x1BFE9, offset: 0x1BFE9, size: 0x8, addend: 0x0, symName: __ZNSt3__112__hash_tableIP7DAGNodeNS_4hashIS2_EENS_8equal_toIS2_EENS_9allocatorIS2_EEE15__insert_uniqueB8ue170006ERKS2_, symObjAddr: 0x72CC, symBinAddr: 0x100008D24, symSize: 0x50 }
  - { offsetInCU: 0x1C01E, offset: 0x1C01E, size: 0x8, addend: 0x0, symName: __ZNSt3__14pairINS_21__hash_const_iteratorIPNS_11__hash_nodeIP7DAGNodePvEEEEbEC1B8ue170006INS_15__hash_iteratorIS7_EEbEERKNS0_IT_T0_EE, symObjAddr: 0x731C, symBinAddr: 0x100008D74, symSize: 0x34 }
  - { offsetInCU: 0x1C068, offset: 0x1C068, size: 0x8, addend: 0x0, symName: __ZNSt3__112__hash_tableIP7DAGNodeNS_4hashIS2_EENS_8equal_toIS2_EENS_9allocatorIS2_EEE25__emplace_unique_key_argsIS2_JRKS2_EEENS_4pairINS_15__hash_iteratorIPNS_11__hash_nodeIS2_PvEEEEbEERKT_DpOT0_, symObjAddr: 0x7350, symBinAddr: 0x100008DA8, symSize: 0x4B4 }
  - { offsetInCU: 0x1C148, offset: 0x1C148, size: 0x8, addend: 0x0, symName: __ZNSt3__122__hash_key_value_typesIP7DAGNodeE9__get_keyB8ue170006ERKS2_, symObjAddr: 0x7804, symBinAddr: 0x10000925C, symSize: 0x14 }
  - { offsetInCU: 0x1C16B, offset: 0x1C16B, size: 0x8, addend: 0x0, symName: __ZNSt3__112__hash_tableIP7DAGNodeNS_4hashIS2_EENS_8equal_toIS2_EENS_9allocatorIS2_EEE21__construct_node_hashIRKS2_JEEENS_10unique_ptrINS_11__hash_nodeIS2_PvEENS_22__hash_node_destructorINS7_ISG_EEEEEEmOT_DpOT0_, symObjAddr: 0x7818, symBinAddr: 0x100009270, symSize: 0x148 }
  - { offsetInCU: 0x1C1DE, offset: 0x1C1DE, size: 0x8, addend: 0x0, symName: __ZNSt3__112__hash_tableIP7DAGNodeNS_4hashIS2_EENS_8equal_toIS2_EENS_9allocatorIS2_EEE4sizeB8ue170006Ev, symObjAddr: 0x7960, symBinAddr: 0x1000093B8, symSize: 0x28 }
  - { offsetInCU: 0x1C204, offset: 0x1C204, size: 0x8, addend: 0x0, symName: __ZNSt3__112__hash_tableIP7DAGNodeNS_4hashIS2_EENS_8equal_toIS2_EENS_9allocatorIS2_EEE15max_load_factorB8ue170006Ev, symObjAddr: 0x7988, symBinAddr: 0x1000093E0, symSize: 0x28 }
  - { offsetInCU: 0x1C22A, offset: 0x1C22A, size: 0x8, addend: 0x0, symName: __ZNSt3__112__hash_tableIP7DAGNodeNS_4hashIS2_EENS_8equal_toIS2_EENS_9allocatorIS2_EEE15__rehash_uniqueB8ue170006Em, symObjAddr: 0x79B0, symBinAddr: 0x100009408, symSize: 0x2C }
  - { offsetInCU: 0x1C25E, offset: 0x1C25E, size: 0x8, addend: 0x0, symName: __Z4ceilB8ue170006f, symObjAddr: 0x7A2C, symBinAddr: 0x100009484, symSize: 0x18 }
  - { offsetInCU: 0x1C28D, offset: 0x1C28D, size: 0x8, addend: 0x0, symName: __ZNSt3__117__compressed_pairINS_16__hash_node_baseIPNS_11__hash_nodeIP7DAGNodePvEEEENS_9allocatorIS6_EEE5firstB8ue170006Ev, symObjAddr: 0x7A44, symBinAddr: 0x10000949C, symSize: 0x24 }
  - { offsetInCU: 0x1C2B3, offset: 0x1C2B3, size: 0x8, addend: 0x0, symName: __ZNSt3__116__hash_node_baseIPNS_11__hash_nodeIP7DAGNodePvEEE5__ptrB8ue170006Ev, symObjAddr: 0x7A68, symBinAddr: 0x1000094C0, symSize: 0x24 }
  - { offsetInCU: 0x1C2D9, offset: 0x1C2D9, size: 0x8, addend: 0x0, symName: __ZNKSt3__110unique_ptrINS_11__hash_nodeIP7DAGNodePvEENS_22__hash_node_destructorINS_9allocatorIS5_EEEEEptB8ue170006Ev, symObjAddr: 0x7A8C, symBinAddr: 0x1000094E4, symSize: 0x28 }
  - { offsetInCU: 0x1C2FF, offset: 0x1C2FF, size: 0x8, addend: 0x0, symName: __ZNKSt3__110unique_ptrINS_11__hash_nodeIP7DAGNodePvEENS_22__hash_node_destructorINS_9allocatorIS5_EEEEE3getB8ue170006Ev, symObjAddr: 0x7AB4, symBinAddr: 0x10000950C, symSize: 0x28 }
  - { offsetInCU: 0x1C325, offset: 0x1C325, size: 0x8, addend: 0x0, symName: __ZNSt3__110unique_ptrINS_11__hash_nodeIP7DAGNodePvEENS_22__hash_node_destructorINS_9allocatorIS5_EEEEE7releaseB8ue170006Ev, symObjAddr: 0x7ADC, symBinAddr: 0x100009534, symSize: 0x44 }
  - { offsetInCU: 0x1C35A, offset: 0x1C35A, size: 0x8, addend: 0x0, symName: __ZNSt3__110unique_ptrINS_11__hash_nodeIP7DAGNodePvEENS_22__hash_node_destructorINS_9allocatorIS5_EEEEED1B8ue170006Ev, symObjAddr: 0x7B20, symBinAddr: 0x100009578, symSize: 0x2C }
  - { offsetInCU: 0x1C384, offset: 0x1C384, size: 0x8, addend: 0x0, symName: __ZNSt3__14pairINS_15__hash_iteratorIPNS_11__hash_nodeIP7DAGNodePvEEEEbEC1B8ue170006ERKS8_RKb, symObjAddr: 0x7B4C, symBinAddr: 0x1000095A4, symSize: 0x3C }
  - { offsetInCU: 0x1C3CA, offset: 0x1C3CA, size: 0x8, addend: 0x0, symName: __ZNSt3__112__hash_tableIP7DAGNodeNS_4hashIS2_EENS_8equal_toIS2_EENS_9allocatorIS2_EEE12__node_allocB8ue170006Ev, symObjAddr: 0x7B88, symBinAddr: 0x1000095E0, symSize: 0x28 }
  - { offsetInCU: 0x1C3F0, offset: 0x1C3F0, size: 0x8, addend: 0x0, symName: __ZNSt3__116allocator_traitsINS_9allocatorINS_11__hash_nodeIP7DAGNodePvEEEEE8allocateB8ue170006ERS7_m, symObjAddr: 0x7BB0, symBinAddr: 0x100009608, symSize: 0x2C }
  - { offsetInCU: 0x1C423, offset: 0x1C423, size: 0x8, addend: 0x0, symName: __ZNSt3__122__hash_node_destructorINS_9allocatorINS_11__hash_nodeIP7DAGNodePvEEEEEC1B8ue170006ERS7_b, symObjAddr: 0x7BDC, symBinAddr: 0x100009634, symSize: 0x48 }
  - { offsetInCU: 0x1C470, offset: 0x1C470, size: 0x8, addend: 0x0, symName: __ZNSt3__110unique_ptrINS_11__hash_nodeIP7DAGNodePvEENS_22__hash_node_destructorINS_9allocatorIS5_EEEEEC1B8ue170006ILb1EvEEPS5_NS_16__dependent_typeINS_27__unique_ptr_deleter_sfinaeIS9_EEXT_EE20__good_rval_ref_typeE, symObjAddr: 0x7C24, symBinAddr: 0x10000967C, symSize: 0x3C }
  - { offsetInCU: 0x1C4C1, offset: 0x1C4C1, size: 0x8, addend: 0x0, symName: __ZNSt3__116allocator_traitsINS_9allocatorINS_11__hash_nodeIP7DAGNodePvEEEEE9constructB8ue170006IS4_JRKS4_EvEEvRS7_PT_DpOT0_, symObjAddr: 0x7C60, symBinAddr: 0x1000096B8, symSize: 0x34 }
  - { offsetInCU: 0x1C518, offset: 0x1C518, size: 0x8, addend: 0x0, symName: __ZNSt3__122__hash_key_value_typesIP7DAGNodeE9__get_ptrB8ue170006ERS2_, symObjAddr: 0x7C94, symBinAddr: 0x1000096EC, symSize: 0x14 }
  - { offsetInCU: 0x1C53B, offset: 0x1C53B, size: 0x8, addend: 0x0, symName: __ZNSt3__110unique_ptrINS_11__hash_nodeIP7DAGNodePvEENS_22__hash_node_destructorINS_9allocatorIS5_EEEEE11get_deleterB8ue170006Ev, symObjAddr: 0x7CA8, symBinAddr: 0x100009700, symSize: 0x24 }
  - { offsetInCU: 0x1C561, offset: 0x1C561, size: 0x8, addend: 0x0, symName: __ZNSt3__117__compressed_pairINS_16__hash_node_baseIPNS_11__hash_nodeIP7DAGNodePvEEEENS_9allocatorIS6_EEE6secondB8ue170006Ev, symObjAddr: 0x7CCC, symBinAddr: 0x100009724, symSize: 0x24 }
  - { offsetInCU: 0x1C587, offset: 0x1C587, size: 0x8, addend: 0x0, symName: __ZNSt3__122__compressed_pair_elemINS_9allocatorINS_11__hash_nodeIP7DAGNodePvEEEELi1ELb1EE5__getB8ue170006Ev, symObjAddr: 0x7CF0, symBinAddr: 0x100009748, symSize: 0x14 }
  - { offsetInCU: 0x1C5AD, offset: 0x1C5AD, size: 0x8, addend: 0x0, symName: __ZNSt3__19allocatorINS_11__hash_nodeIP7DAGNodePvEEE8allocateB8ue170006Em, symObjAddr: 0x7D04, symBinAddr: 0x10000975C, symSize: 0x8C }
  - { offsetInCU: 0x1C5EB, offset: 0x1C5EB, size: 0x8, addend: 0x0, symName: __ZNSt3__116allocator_traitsINS_9allocatorINS_11__hash_nodeIP7DAGNodePvEEEEE8max_sizeB8ue170006IS7_vEEmRKS7_, symObjAddr: 0x7D90, symBinAddr: 0x1000097E8, symSize: 0x24 }
  - { offsetInCU: 0x1C619, offset: 0x1C619, size: 0x8, addend: 0x0, symName: __ZNKSt3__19allocatorINS_11__hash_nodeIP7DAGNodePvEEE8max_sizeB8ue170006Ev, symObjAddr: 0x7DB4, symBinAddr: 0x10000980C, symSize: 0x18 }
  - { offsetInCU: 0x1C63F, offset: 0x1C63F, size: 0x8, addend: 0x0, symName: __ZNSt3__122__hash_node_destructorINS_9allocatorINS_11__hash_nodeIP7DAGNodePvEEEEEC2B8ue170006ERS7_b, symObjAddr: 0x7DCC, symBinAddr: 0x100009824, symSize: 0x38 }
  - { offsetInCU: 0x1C687, offset: 0x1C687, size: 0x8, addend: 0x0, symName: __ZNSt3__110unique_ptrINS_11__hash_nodeIP7DAGNodePvEENS_22__hash_node_destructorINS_9allocatorIS5_EEEEEC2B8ue170006ILb1EvEEPS5_NS_16__dependent_typeINS_27__unique_ptr_deleter_sfinaeIS9_EEXT_EE20__good_rval_ref_typeE, symObjAddr: 0x7E04, symBinAddr: 0x10000985C, symSize: 0x5C }
  - { offsetInCU: 0x1C6D8, offset: 0x1C6D8, size: 0x8, addend: 0x0, symName: __ZNSt3__117__compressed_pairIPNS_11__hash_nodeIP7DAGNodePvEENS_22__hash_node_destructorINS_9allocatorIS5_EEEEEC1B8ue170006IRS6_SA_EEOT_OT0_, symObjAddr: 0x7E60, symBinAddr: 0x1000098B8, symSize: 0x3C }
  - { offsetInCU: 0x1C730, offset: 0x1C730, size: 0x8, addend: 0x0, symName: __ZNSt3__117__compressed_pairIPNS_11__hash_nodeIP7DAGNodePvEENS_22__hash_node_destructorINS_9allocatorIS5_EEEEEC2B8ue170006IRS6_SA_EEOT_OT0_, symObjAddr: 0x7E9C, symBinAddr: 0x1000098F4, symSize: 0x48 }
  - { offsetInCU: 0x1C788, offset: 0x1C788, size: 0x8, addend: 0x0, symName: __ZNSt3__122__compressed_pair_elemIPNS_11__hash_nodeIP7DAGNodePvEELi0ELb0EEC2B8ue170006IRS6_vEEOT_, symObjAddr: 0x7EE4, symBinAddr: 0x10000993C, symSize: 0x24 }
  - { offsetInCU: 0x1C7CA, offset: 0x1C7CA, size: 0x8, addend: 0x0, symName: __ZNSt3__122__compressed_pair_elemINS_22__hash_node_destructorINS_9allocatorINS_11__hash_nodeIP7DAGNodePvEEEEEELi1ELb0EEC2B8ue170006IS9_vEEOT_, symObjAddr: 0x7F08, symBinAddr: 0x100009960, symSize: 0x24 }
  - { offsetInCU: 0x1C80C, offset: 0x1C80C, size: 0x8, addend: 0x0, symName: __ZNSt3__19allocatorINS_11__hash_nodeIP7DAGNodePvEEE9constructB8ue170006IS3_JRKS3_EEEvPT_DpOT0_, symObjAddr: 0x7F2C, symBinAddr: 0x100009984, symSize: 0x28 }
  - { offsetInCU: 0x1C862, offset: 0x1C862, size: 0x8, addend: 0x0, symName: __ZNSt3__117__compressed_pairIPNS_11__hash_nodeIP7DAGNodePvEENS_22__hash_node_destructorINS_9allocatorIS5_EEEEE6secondB8ue170006Ev, symObjAddr: 0x7F54, symBinAddr: 0x1000099AC, symSize: 0x28 }
  - { offsetInCU: 0x1C888, offset: 0x1C888, size: 0x8, addend: 0x0, symName: __ZNSt3__122__compressed_pair_elemINS_22__hash_node_destructorINS_9allocatorINS_11__hash_nodeIP7DAGNodePvEEEEEELi1ELb0EE5__getB8ue170006Ev, symObjAddr: 0x7F7C, symBinAddr: 0x1000099D4, symSize: 0x14 }
  - { offsetInCU: 0x1C8AE, offset: 0x1C8AE, size: 0x8, addend: 0x0, symName: __ZNSt3__117__compressed_pairImNS_4hashIP7DAGNodeEEE5firstB8ue170006Ev, symObjAddr: 0x7F90, symBinAddr: 0x1000099E8, symSize: 0x24 }
  - { offsetInCU: 0x1C8D4, offset: 0x1C8D4, size: 0x8, addend: 0x0, symName: __ZNSt3__117__compressed_pairIfNS_8equal_toIP7DAGNodeEEE5firstB8ue170006Ev, symObjAddr: 0x7FB4, symBinAddr: 0x100009A0C, symSize: 0x24 }
  - { offsetInCU: 0x1C8FA, offset: 0x1C8FA, size: 0x8, addend: 0x0, symName: __ZNSt3__122__compressed_pair_elemIfLi0ELb0EE5__getB8ue170006Ev, symObjAddr: 0x7FD8, symBinAddr: 0x100009A30, symSize: 0x14 }
  - { offsetInCU: 0x1C920, offset: 0x1C920, size: 0x8, addend: 0x0, symName: __ZNSt3__112__hash_tableIP7DAGNodeNS_4hashIS2_EENS_8equal_toIS2_EENS_9allocatorIS2_EEE8__rehashILb1EEEvm, symObjAddr: 0x7FEC, symBinAddr: 0x100009A44, symSize: 0x1A8 }
  - { offsetInCU: 0x1C970, offset: 0x1C970, size: 0x8, addend: 0x0, symName: __ZNSt3__112__hash_tableIP7DAGNodeNS_4hashIS2_EENS_8equal_toIS2_EENS_9allocatorIS2_EEE11__do_rehashILb1EEEvm, symObjAddr: 0x8194, symBinAddr: 0x100009BEC, symSize: 0x288 }
  - { offsetInCU: 0x1CA57, offset: 0x1CA57, size: 0x8, addend: 0x0, symName: __ZNSt3__110unique_ptrIA_PNS_16__hash_node_baseIPNS_11__hash_nodeIP7DAGNodePvEEEENS_25__bucket_list_deallocatorINS_9allocatorIS9_EEEEE11get_deleterB8ue170006Ev, symObjAddr: 0x8488, symBinAddr: 0x100009EE0, symSize: 0x24 }
  - { offsetInCU: 0x1CA7D, offset: 0x1CA7D, size: 0x8, addend: 0x0, symName: __ZNSt3__110unique_ptrIA_PNS_16__hash_node_baseIPNS_11__hash_nodeIP7DAGNodePvEEEENS_25__bucket_list_deallocatorINS_9allocatorIS9_EEEEE5resetB8ue170006IPS9_EENS_9enable_ifIXsr28_CheckArrayPointerConversionIT_EE5valueEvE4typeESJ_, symObjAddr: 0x84AC, symBinAddr: 0x100009F04, symSize: 0x78 }
  - { offsetInCU: 0x1CACA, offset: 0x1CACA, size: 0x8, addend: 0x0, symName: __ZNSt3__116allocator_traitsINS_9allocatorIPNS_16__hash_node_baseIPNS_11__hash_nodeIP7DAGNodePvEEEEEEE8allocateB8ue170006ERSB_m, symObjAddr: 0x8524, symBinAddr: 0x100009F7C, symSize: 0x2C }
  - { offsetInCU: 0x1CAFD, offset: 0x1CAFD, size: 0x8, addend: 0x0, symName: __ZNSt3__19allocatorIPNS_16__hash_node_baseIPNS_11__hash_nodeIP7DAGNodePvEEEEE8allocateB8ue170006Em, symObjAddr: 0x8550, symBinAddr: 0x100009FA8, symSize: 0x84 }
  - { offsetInCU: 0x1CB3B, offset: 0x1CB3B, size: 0x8, addend: 0x0, symName: __ZNSt3__116allocator_traitsINS_9allocatorIPNS_16__hash_node_baseIPNS_11__hash_nodeIP7DAGNodePvEEEEEEE8max_sizeB8ue170006ISB_vEEmRKSB_, symObjAddr: 0x85D4, symBinAddr: 0x10000A02C, symSize: 0x24 }
  - { offsetInCU: 0x1CB69, offset: 0x1CB69, size: 0x8, addend: 0x0, symName: __ZNKSt3__19allocatorIPNS_16__hash_node_baseIPNS_11__hash_nodeIP7DAGNodePvEEEEE8max_sizeB8ue170006Ev, symObjAddr: 0x85F8, symBinAddr: 0x10000A050, symSize: 0x14 }
  - { offsetInCU: 0x1CB8F, offset: 0x1CB8F, size: 0x8, addend: 0x0, symName: __ZNSt3__122__compressed_pair_elemINS_16__hash_node_baseIPNS_11__hash_nodeIP7DAGNodePvEEEELi0ELb0EE5__getB8ue170006Ev, symObjAddr: 0x8628, symBinAddr: 0x10000A080, symSize: 0x14 }
  - { offsetInCU: 0x1CBB5, offset: 0x1CBB5, size: 0x8, addend: 0x0, symName: __ZNKSt3__117__compressed_pairIPNS_11__hash_nodeIP7DAGNodePvEENS_22__hash_node_destructorINS_9allocatorIS5_EEEEE5firstB8ue170006Ev, symObjAddr: 0x863C, symBinAddr: 0x10000A094, symSize: 0x24 }
  - { offsetInCU: 0x1CBDB, offset: 0x1CBDB, size: 0x8, addend: 0x0, symName: __ZNKSt3__122__compressed_pair_elemIPNS_11__hash_nodeIP7DAGNodePvEELi0ELb0EE5__getB8ue170006Ev, symObjAddr: 0x8660, symBinAddr: 0x10000A0B8, symSize: 0x14 }
  - { offsetInCU: 0x1CC01, offset: 0x1CC01, size: 0x8, addend: 0x0, symName: __ZNSt3__117__compressed_pairIPNS_11__hash_nodeIP7DAGNodePvEENS_22__hash_node_destructorINS_9allocatorIS5_EEEEE5firstB8ue170006Ev, symObjAddr: 0x8674, symBinAddr: 0x10000A0CC, symSize: 0x24 }
  - { offsetInCU: 0x1CC27, offset: 0x1CC27, size: 0x8, addend: 0x0, symName: __ZNSt3__122__compressed_pair_elemIPNS_11__hash_nodeIP7DAGNodePvEELi0ELb0EE5__getB8ue170006Ev, symObjAddr: 0x8698, symBinAddr: 0x10000A0F0, symSize: 0x14 }
  - { offsetInCU: 0x1CC4D, offset: 0x1CC4D, size: 0x8, addend: 0x0, symName: __ZNSt3__110unique_ptrINS_11__hash_nodeIP7DAGNodePvEENS_22__hash_node_destructorINS_9allocatorIS5_EEEEED2B8ue170006Ev, symObjAddr: 0x86AC, symBinAddr: 0x10000A104, symSize: 0x30 }
  - { offsetInCU: 0x1CC77, offset: 0x1CC77, size: 0x8, addend: 0x0, symName: __ZNSt3__110unique_ptrINS_11__hash_nodeIP7DAGNodePvEENS_22__hash_node_destructorINS_9allocatorIS5_EEEEE5resetB8ue170006EPS5_, symObjAddr: 0x86DC, symBinAddr: 0x10000A134, symSize: 0x78 }
  - { offsetInCU: 0x1CCBB, offset: 0x1CCBB, size: 0x8, addend: 0x0, symName: __ZNSt3__122__hash_node_destructorINS_9allocatorINS_11__hash_nodeIP7DAGNodePvEEEEEclB8ue170006EPS6_, symObjAddr: 0x8754, symBinAddr: 0x10000A1AC, symSize: 0xA4 }
  - { offsetInCU: 0x1CCF0, offset: 0x1CCF0, size: 0x8, addend: 0x0, symName: __ZNSt3__116allocator_traitsINS_9allocatorINS_11__hash_nodeIP7DAGNodePvEEEEE7destroyB8ue170006IS4_vvEEvRS7_PT_, symObjAddr: 0x87F8, symBinAddr: 0x10000A250, symSize: 0x14 }
  - { offsetInCU: 0x1CD2A, offset: 0x1CD2A, size: 0x8, addend: 0x0, symName: __ZNSt3__116allocator_traitsINS_9allocatorINS_11__hash_nodeIP7DAGNodePvEEEEE10deallocateB8ue170006ERS7_PS6_m, symObjAddr: 0x880C, symBinAddr: 0x10000A264, symSize: 0x34 }
  - { offsetInCU: 0x1CD6C, offset: 0x1CD6C, size: 0x8, addend: 0x0, symName: __ZNSt3__19allocatorINS_11__hash_nodeIP7DAGNodePvEEE10deallocateB8ue170006EPS5_m, symObjAddr: 0x8840, symBinAddr: 0x10000A298, symSize: 0x74 }
  - { offsetInCU: 0x1CDAE, offset: 0x1CDAE, size: 0x8, addend: 0x0, symName: __ZNSt3__14pairINS_15__hash_iteratorIPNS_11__hash_nodeIP7DAGNodePvEEEEbEC2B8ue170006ERKS8_RKb, symObjAddr: 0x88B4, symBinAddr: 0x10000A30C, symSize: 0x38 }
  - { offsetInCU: 0x1CDF4, offset: 0x1CDF4, size: 0x8, addend: 0x0, symName: __ZNSt3__14pairINS_21__hash_const_iteratorIPNS_11__hash_nodeIP7DAGNodePvEEEEbEC2B8ue170006INS_15__hash_iteratorIS7_EEbEERKNS0_IT_T0_EE, symObjAddr: 0x88EC, symBinAddr: 0x10000A344, symSize: 0x44 }
  - { offsetInCU: 0x1CE3E, offset: 0x1CE3E, size: 0x8, addend: 0x0, symName: __ZNSt3__16vectorIP7DAGNodeNS_9allocatorIS2_EEE9__end_capB8ue170006Ev, symObjAddr: 0x8930, symBinAddr: 0x10000A388, symSize: 0x28 }
  - { offsetInCU: 0x1CE64, offset: 0x1CE64, size: 0x8, addend: 0x0, symName: __ZNSt3__16vectorIP7DAGNodeNS_9allocatorIS2_EEE22__construct_one_at_endB8ue170006IJRKS2_EEEvDpOT_, symObjAddr: 0x8958, symBinAddr: 0x10000A3B0, symSize: 0x98 }
  - { offsetInCU: 0x1CEB3, offset: 0x1CEB3, size: 0x8, addend: 0x0, symName: __ZNSt3__16vectorIP7DAGNodeNS_9allocatorIS2_EEE21__push_back_slow_pathIRKS2_EEvOT_, symObjAddr: 0x89F0, symBinAddr: 0x10000A448, symSize: 0xE0 }
  - { offsetInCU: 0x1CF11, offset: 0x1CF11, size: 0x8, addend: 0x0, symName: __ZNSt3__117__compressed_pairIPP7DAGNodeNS_9allocatorIS2_EEE5firstB8ue170006Ev, symObjAddr: 0x8AD0, symBinAddr: 0x10000A528, symSize: 0x24 }
  - { offsetInCU: 0x1CF50, offset: 0x1CF50, size: 0x8, addend: 0x0, symName: __ZNSt3__16vectorIP7DAGNodeNS_9allocatorIS2_EEE21_ConstructTransactionC1B8ue170006ERS5_m, symObjAddr: 0x8AF4, symBinAddr: 0x10000A54C, symSize: 0x3C }
  - { offsetInCU: 0x1CF98, offset: 0x1CF98, size: 0x8, addend: 0x0, symName: __ZNSt3__16vectorIP7DAGNodeNS_9allocatorIS2_EEE7__allocB8ue170006Ev, symObjAddr: 0x8B30, symBinAddr: 0x10000A588, symSize: 0x28 }
  - { offsetInCU: 0x1CFBE, offset: 0x1CFBE, size: 0x8, addend: 0x0, symName: __ZNSt3__16vectorIP7DAGNodeNS_9allocatorIS2_EEE21_ConstructTransactionD1B8ue170006Ev, symObjAddr: 0x8B58, symBinAddr: 0x10000A5B0, symSize: 0x2C }
  - { offsetInCU: 0x1CFE8, offset: 0x1CFE8, size: 0x8, addend: 0x0, symName: __ZNSt3__16vectorIP7DAGNodeNS_9allocatorIS2_EEE21_ConstructTransactionC2B8ue170006ERS5_m, symObjAddr: 0x8B84, symBinAddr: 0x10000A5DC, symSize: 0x44 }
  - { offsetInCU: 0x1D030, offset: 0x1D030, size: 0x8, addend: 0x0, symName: __ZNSt3__117__compressed_pairIPP7DAGNodeNS_9allocatorIS2_EEE6secondB8ue170006Ev, symObjAddr: 0x8BC8, symBinAddr: 0x10000A620, symSize: 0x24 }
  - { offsetInCU: 0x1D056, offset: 0x1D056, size: 0x8, addend: 0x0, symName: __ZNSt3__16vectorIP7DAGNodeNS_9allocatorIS2_EEE21_ConstructTransactionD2B8ue170006Ev, symObjAddr: 0x8BEC, symBinAddr: 0x10000A644, symSize: 0x20 }
  - { offsetInCU: 0x1D080, offset: 0x1D080, size: 0x8, addend: 0x0, symName: __ZNKSt3__16vectorIP7DAGNodeNS_9allocatorIS2_EEE11__recommendB8ue170006Em, symObjAddr: 0x8C0C, symBinAddr: 0x10000A664, symSize: 0xB4 }
  - { offsetInCU: 0x1D0D5, offset: 0x1D0D5, size: 0x8, addend: 0x0, symName: __ZNKSt3__16vectorIP7DAGNodeNS_9allocatorIS2_EEE4sizeB8ue170006Ev, symObjAddr: 0x8CC0, symBinAddr: 0x10000A718, symSize: 0x28 }
  - { offsetInCU: 0x1D0FB, offset: 0x1D0FB, size: 0x8, addend: 0x0, symName: __ZNSt3__114__split_bufferIP7DAGNodeRNS_9allocatorIS2_EEEC1EmmS5_, symObjAddr: 0x8CE8, symBinAddr: 0x10000A740, symSize: 0x44 }
  - { offsetInCU: 0x1D151, offset: 0x1D151, size: 0x8, addend: 0x0, symName: __ZNSt3__114__split_bufferIP7DAGNodeRNS_9allocatorIS2_EEED1Ev, symObjAddr: 0x8E3C, symBinAddr: 0x10000A894, symSize: 0x2C }
  - { offsetInCU: 0x1D17D, offset: 0x1D17D, size: 0x8, addend: 0x0, symName: __ZNKSt3__16vectorIP7DAGNodeNS_9allocatorIS2_EEE8max_sizeEv, symObjAddr: 0x8E68, symBinAddr: 0x10000A8C0, symSize: 0x74 }
  - { offsetInCU: 0x1D1A5, offset: 0x1D1A5, size: 0x8, addend: 0x0, symName: __ZNKSt3__16vectorIP7DAGNodeNS_9allocatorIS2_EEE20__throw_length_errorB8ue170006Ev, symObjAddr: 0x8EDC, symBinAddr: 0x10000A934, symSize: 0x1C }
  - { offsetInCU: 0x1D1CB, offset: 0x1D1CB, size: 0x8, addend: 0x0, symName: __ZNKSt3__16vectorIP7DAGNodeNS_9allocatorIS2_EEE8capacityB8ue170006Ev, symObjAddr: 0x8EF8, symBinAddr: 0x10000A950, symSize: 0x40 }
  - { offsetInCU: 0x1D1F1, offset: 0x1D1F1, size: 0x8, addend: 0x0, symName: __ZNKSt3__16vectorIP7DAGNodeNS_9allocatorIS2_EEE7__allocB8ue170006Ev, symObjAddr: 0x8F64, symBinAddr: 0x10000A9BC, symSize: 0x28 }
  - { offsetInCU: 0x1D217, offset: 0x1D217, size: 0x8, addend: 0x0, symName: __ZNSt3__114numeric_limitsIlE3maxB8ue170006Ev, symObjAddr: 0x8F8C, symBinAddr: 0x10000A9E4, symSize: 0x14 }
  - { offsetInCU: 0x1D22B, offset: 0x1D22B, size: 0x8, addend: 0x0, symName: __ZNKSt3__117__compressed_pairIPP7DAGNodeNS_9allocatorIS2_EEE6secondB8ue170006Ev, symObjAddr: 0x8FF4, symBinAddr: 0x10000AA4C, symSize: 0x24 }
  - { offsetInCU: 0x1D251, offset: 0x1D251, size: 0x8, addend: 0x0, symName: __ZNKSt3__122__compressed_pair_elemINS_9allocatorIP7DAGNodeEELi1ELb1EE5__getB8ue170006Ev, symObjAddr: 0x9018, symBinAddr: 0x10000AA70, symSize: 0x14 }
  - { offsetInCU: 0x1D277, offset: 0x1D277, size: 0x8, addend: 0x0, symName: __ZNSt3__123__libcpp_numeric_limitsIlLb1EE3maxB8ue170006Ev, symObjAddr: 0x902C, symBinAddr: 0x10000AA84, symSize: 0x8 }
  - { offsetInCU: 0x1D28B, offset: 0x1D28B, size: 0x8, addend: 0x0, symName: __ZNSt12length_errorC1B8ue170006EPKc, symObjAddr: 0x9098, symBinAddr: 0x10000AAF0, symSize: 0x34 }
  - { offsetInCU: 0x1D2C3, offset: 0x1D2C3, size: 0x8, addend: 0x0, symName: __ZNSt12length_errorC2B8ue170006EPKc, symObjAddr: 0x90CC, symBinAddr: 0x10000AB24, symSize: 0x4C }
  - { offsetInCU: 0x1D2FB, offset: 0x1D2FB, size: 0x8, addend: 0x0, symName: __ZNKSt3__16vectorIP7DAGNodeNS_9allocatorIS2_EEE9__end_capB8ue170006Ev, symObjAddr: 0x9118, symBinAddr: 0x10000AB70, symSize: 0x28 }
  - { offsetInCU: 0x1D321, offset: 0x1D321, size: 0x8, addend: 0x0, symName: __ZNKSt3__117__compressed_pairIPP7DAGNodeNS_9allocatorIS2_EEE5firstB8ue170006Ev, symObjAddr: 0x9140, symBinAddr: 0x10000AB98, symSize: 0x24 }
  - { offsetInCU: 0x1D347, offset: 0x1D347, size: 0x8, addend: 0x0, symName: __ZNSt3__114__split_bufferIP7DAGNodeRNS_9allocatorIS2_EEEC2EmmS5_, symObjAddr: 0x9164, symBinAddr: 0x10000ABBC, symSize: 0xD4 }
  - { offsetInCU: 0x1D3BB, offset: 0x1D3BB, size: 0x8, addend: 0x0, symName: __ZNSt3__117__compressed_pairIPP7DAGNodeRNS_9allocatorIS2_EEEC1B8ue170006IDnS6_EEOT_OT0_, symObjAddr: 0x9238, symBinAddr: 0x10000AC90, symSize: 0x3C }
  - { offsetInCU: 0x1D413, offset: 0x1D413, size: 0x8, addend: 0x0, symName: __ZNSt3__114__split_bufferIP7DAGNodeRNS_9allocatorIS2_EEE7__allocB8ue170006Ev, symObjAddr: 0x92B4, symBinAddr: 0x10000AD0C, symSize: 0x28 }
  - { offsetInCU: 0x1D439, offset: 0x1D439, size: 0x8, addend: 0x0, symName: __ZNSt3__114__split_bufferIP7DAGNodeRNS_9allocatorIS2_EEE9__end_capB8ue170006Ev, symObjAddr: 0x92DC, symBinAddr: 0x10000AD34, symSize: 0x28 }
  - { offsetInCU: 0x1D45F, offset: 0x1D45F, size: 0x8, addend: 0x0, symName: __ZNSt3__117__compressed_pairIPP7DAGNodeRNS_9allocatorIS2_EEEC2B8ue170006IDnS6_EEOT_OT0_, symObjAddr: 0x9304, symBinAddr: 0x10000AD5C, symSize: 0x48 }
  - { offsetInCU: 0x1D4B7, offset: 0x1D4B7, size: 0x8, addend: 0x0, symName: __ZNSt3__122__compressed_pair_elemIRNS_9allocatorIP7DAGNodeEELi1ELb0EEC2B8ue170006IS5_vEEOT_, symObjAddr: 0x934C, symBinAddr: 0x10000ADA4, symSize: 0x20 }
  - { offsetInCU: 0x1D4F9, offset: 0x1D4F9, size: 0x8, addend: 0x0, symName: __ZNSt3__117__compressed_pairIPP7DAGNodeRNS_9allocatorIS2_EEE6secondB8ue170006Ev, symObjAddr: 0x936C, symBinAddr: 0x10000ADC4, symSize: 0x28 }
  - { offsetInCU: 0x1D51F, offset: 0x1D51F, size: 0x8, addend: 0x0, symName: __ZNSt3__122__compressed_pair_elemIRNS_9allocatorIP7DAGNodeEELi1ELb0EE5__getB8ue170006Ev, symObjAddr: 0x9394, symBinAddr: 0x10000ADEC, symSize: 0x18 }
  - { offsetInCU: 0x1D545, offset: 0x1D545, size: 0x8, addend: 0x0, symName: __ZNSt3__117__compressed_pairIPP7DAGNodeRNS_9allocatorIS2_EEE5firstB8ue170006Ev, symObjAddr: 0x93AC, symBinAddr: 0x10000AE04, symSize: 0x24 }
  - { offsetInCU: 0x1D56B, offset: 0x1D56B, size: 0x8, addend: 0x0, symName: __ZNKSt3__16vectorIP7DAGNodeNS_9allocatorIS2_EEE17__annotate_deleteB8ue170006Ev, symObjAddr: 0x93D0, symBinAddr: 0x10000AE28, symSize: 0xB8 }
  - { offsetInCU: 0x1D591, offset: 0x1D591, size: 0x8, addend: 0x0, symName: __ZNSt3__116reverse_iteratorIPP7DAGNodeEC1B8ue170006ES3_, symObjAddr: 0x9570, symBinAddr: 0x10000AFC8, symSize: 0x34 }
  - { offsetInCU: 0x1D5C9, offset: 0x1D5C9, size: 0x8, addend: 0x0, symName: __ZNKSt3__116reverse_iteratorIPP7DAGNodeE4baseB8ue170006Ev, symObjAddr: 0x95A4, symBinAddr: 0x10000AFFC, symSize: 0x18 }
  - { offsetInCU: 0x1D5EF, offset: 0x1D5EF, size: 0x8, addend: 0x0, symName: __ZNKSt3__16vectorIP7DAGNodeNS_9allocatorIS2_EEE14__annotate_newB8ue170006Em, symObjAddr: 0x95F8, symBinAddr: 0x10000B050, symSize: 0xAC }
  - { offsetInCU: 0x1D624, offset: 0x1D624, size: 0x8, addend: 0x0, symName: __ZNKSt3__16vectorIP7DAGNodeNS_9allocatorIS2_EEE31__annotate_contiguous_containerB8ue170006EPKvS7_S7_S7_, symObjAddr: 0x96A4, symBinAddr: 0x10000B0FC, symSize: 0x20 }
  - { offsetInCU: 0x1D676, offset: 0x1D676, size: 0x8, addend: 0x0, symName: __ZNKSt3__16vectorIP7DAGNodeNS_9allocatorIS2_EEE4dataB8ue170006Ev, symObjAddr: 0x96C4, symBinAddr: 0x10000B11C, symSize: 0x28 }
  - { offsetInCU: 0x1D69C, offset: 0x1D69C, size: 0x8, addend: 0x0, symName: __ZNKSt3__116reverse_iteratorIPP7DAGNodeEdeB8ue170006Ev, symObjAddr: 0x9784, symBinAddr: 0x10000B1DC, symSize: 0x28 }
  - { offsetInCU: 0x1D6D0, offset: 0x1D6D0, size: 0x8, addend: 0x0, symName: __ZNSt3__116reverse_iteratorIPP7DAGNodeEppB8ue170006Ev, symObjAddr: 0x97AC, symBinAddr: 0x10000B204, symSize: 0x20 }
  - { offsetInCU: 0x1D6FB, offset: 0x1D6FB, size: 0x8, addend: 0x0, symName: __ZNSt3__119__to_address_helperINS_16reverse_iteratorIPP7DAGNodeEEvE6__callB8ue170006ERKS5_, symObjAddr: 0x9844, symBinAddr: 0x10000B29C, symSize: 0x4C }
  - { offsetInCU: 0x1D71E, offset: 0x1D71E, size: 0x8, addend: 0x0, symName: __ZNKSt3__116reverse_iteratorIPP7DAGNodeEptB8ue170006Ev, symObjAddr: 0x9890, symBinAddr: 0x10000B2E8, symSize: 0x24 }
  - { offsetInCU: 0x1D767, offset: 0x1D767, size: 0x8, addend: 0x0, symName: __ZNKSt3__111__move_loopINS_17_ClassicAlgPolicyEEclB8ue170006INS_16reverse_iteratorIPP7DAGNodeEES8_S8_EENS_4pairIT_T1_EESA_T0_SB_, symObjAddr: 0x9B2C, symBinAddr: 0x10000B584, symSize: 0xA0 }
  - { offsetInCU: 0x1D7D7, offset: 0x1D7D7, size: 0x8, addend: 0x0, symName: __ZNSt3__18_IterOpsINS_17_ClassicAlgPolicyEE11__iter_moveB8ue170006IRNS_16reverse_iteratorIPP7DAGNodeEEEENS_9enable_ifIXsr12is_referenceIDTdeclsr3stdE7declvalIRT_EEEEE5valueEDTclsr3stdE4movedeclsr3stdE7declvalISC_EEEEE4typeEOSB_, symObjAddr: 0x9D2C, symBinAddr: 0x10000B784, symSize: 0x28 }
  - { offsetInCU: 0x1D803, offset: 0x1D803, size: 0x8, addend: 0x0, symName: __ZNSt3__18_IterOpsINS_17_ClassicAlgPolicyEE25__validate_iter_referenceB8ue170006IRNS_16reverse_iteratorIPP7DAGNodeEEEEvv, symObjAddr: 0x9D54, symBinAddr: 0x10000B7AC, symSize: 0x4 }
  - { offsetInCU: 0x1D821, offset: 0x1D821, size: 0x8, addend: 0x0, symName: __ZNSt3__118__unwrap_iter_implINS_16reverse_iteratorIPP7DAGNodeEELb0EE8__unwrapB8ue170006ES5_, symObjAddr: 0x9D58, symBinAddr: 0x10000B7B0, symSize: 0x24 }
  - { offsetInCU: 0x1D844, offset: 0x1D844, size: 0x8, addend: 0x0, symName: __ZNSt3__14pairINS_16reverse_iteratorIPP7DAGNodeEES5_EC1B8ue170006ERKS5_S8_, symObjAddr: 0x9D7C, symBinAddr: 0x10000B7D4, symSize: 0x3C }
  - { offsetInCU: 0x1D88A, offset: 0x1D88A, size: 0x8, addend: 0x0, symName: __ZNSt3__14pairINS_16reverse_iteratorIPP7DAGNodeEES5_EC2B8ue170006ERKS5_S8_, symObjAddr: 0x9DB8, symBinAddr: 0x10000B810, symSize: 0x34 }
  - { offsetInCU: 0x1D8D0, offset: 0x1D8D0, size: 0x8, addend: 0x0, symName: __ZNSt3__118__unwrap_iter_implINS_16reverse_iteratorIPP7DAGNodeEELb0EE8__rewrapB8ue170006ES5_S5_, symObjAddr: 0x9DEC, symBinAddr: 0x10000B844, symSize: 0x2C }
  - { offsetInCU: 0x1D8FD, offset: 0x1D8FD, size: 0x8, addend: 0x0, symName: __ZNSt3__116reverse_iteratorIPP7DAGNodeEC2B8ue170006ES3_, symObjAddr: 0x9E18, symBinAddr: 0x10000B870, symSize: 0x28 }
  - { offsetInCU: 0x1D935, offset: 0x1D935, size: 0x8, addend: 0x0, symName: __ZNSt3__114__split_bufferIP7DAGNodeRNS_9allocatorIS2_EEED2Ev, symObjAddr: 0x9E40, symBinAddr: 0x10000B898, symSize: 0x80 }
  - { offsetInCU: 0x1D961, offset: 0x1D961, size: 0x8, addend: 0x0, symName: __ZNSt3__114__split_bufferIP7DAGNodeRNS_9allocatorIS2_EEE5clearB8ue170006Ev, symObjAddr: 0x9EC0, symBinAddr: 0x10000B918, symSize: 0x28 }
  - { offsetInCU: 0x1D987, offset: 0x1D987, size: 0x8, addend: 0x0, symName: __ZNKSt3__114__split_bufferIP7DAGNodeRNS_9allocatorIS2_EEE8capacityB8ue170006Ev, symObjAddr: 0x9EE8, symBinAddr: 0x10000B940, symSize: 0x40 }
  - { offsetInCU: 0x1D9AD, offset: 0x1D9AD, size: 0x8, addend: 0x0, symName: __ZNSt3__114__split_bufferIP7DAGNodeRNS_9allocatorIS2_EEE17__destruct_at_endB8ue170006EPS2_, symObjAddr: 0x9F28, symBinAddr: 0x10000B980, symSize: 0x2C }
  - { offsetInCU: 0x1D9E1, offset: 0x1D9E1, size: 0x8, addend: 0x0, symName: __ZNSt3__114__split_bufferIP7DAGNodeRNS_9allocatorIS2_EEE17__destruct_at_endB8ue170006EPS2_NS_17integral_constantIbLb0EEE, symObjAddr: 0x9F54, symBinAddr: 0x10000B9AC, symSize: 0x94 }
  - { offsetInCU: 0x1DA21, offset: 0x1DA21, size: 0x8, addend: 0x0, symName: __ZNKSt3__114__split_bufferIP7DAGNodeRNS_9allocatorIS2_EEE9__end_capB8ue170006Ev, symObjAddr: 0x9FE8, symBinAddr: 0x10000BA40, symSize: 0x28 }
  - { offsetInCU: 0x1DA47, offset: 0x1DA47, size: 0x8, addend: 0x0, symName: __ZNKSt3__117__compressed_pairIPP7DAGNodeRNS_9allocatorIS2_EEE5firstB8ue170006Ev, symObjAddr: 0xA010, symBinAddr: 0x10000BA68, symSize: 0x24 }
  - { offsetInCU: 0x1DA6D, offset: 0x1DA6D, size: 0x8, addend: 0x0, symName: __ZNSt3__111__wrap_iterIPP7DAGNodeEmmB8ue170006Ev, symObjAddr: 0xA134, symBinAddr: 0x10000BB8C, symSize: 0x20 }
  - { offsetInCU: 0x1DA93, offset: 0x1DA93, size: 0x8, addend: 0x0, symName: __ZNSt3__18_IterOpsINS_17_ClassicAlgPolicyEE9iter_swapB8ue170006IRNS_11__wrap_iterIPP7DAGNodeEES9_EEvOT_OT0_, symObjAddr: 0xA154, symBinAddr: 0x10000BBAC, symSize: 0x44 }
  - { offsetInCU: 0x1DAD6, offset: 0x1DAD6, size: 0x8, addend: 0x0, symName: __ZNKSt3__111__wrap_iterIPP7DAGNodeE4baseB8ue170006Ev, symObjAddr: 0xA198, symBinAddr: 0x10000BBF0, symSize: 0x18 }
  - { offsetInCU: 0x1DAFC, offset: 0x1DAFC, size: 0x8, addend: 0x0, symName: __ZNSt3__15stackIP7DAGNodeNS_5dequeIS2_NS_9allocatorIS2_EEEEED2Ev, symObjAddr: 0xA23C, symBinAddr: 0x10000BC94, symSize: 0x2C }
  - { offsetInCU: 0x1DB28, offset: 0x1DB28, size: 0x8, addend: 0x0, symName: __ZNSt3__15dequeIP7DAGNodeNS_9allocatorIS2_EEED1B8ue170006Ev, symObjAddr: 0xA268, symBinAddr: 0x10000BCC0, symSize: 0x2C }
  - { offsetInCU: 0x1DB52, offset: 0x1DB52, size: 0x8, addend: 0x0, symName: __ZNSt3__15dequeIP7DAGNodeNS_9allocatorIS2_EEED2B8ue170006Ev, symObjAddr: 0xA294, symBinAddr: 0x10000BCEC, symSize: 0xA4 }
  - { offsetInCU: 0x1DBA9, offset: 0x1DBA9, size: 0x8, addend: 0x0, symName: __ZNSt3__15dequeIP7DAGNodeNS_9allocatorIS2_EEE5clearEv, symObjAddr: 0xA338, symBinAddr: 0x10000BD90, symSize: 0x184 }
  - { offsetInCU: 0x1DC0D, offset: 0x1DC0D, size: 0x8, addend: 0x0, symName: __ZNKSt3__15dequeIP7DAGNodeNS_9allocatorIS2_EEE17__annotate_deleteB8ue170006Ev, symObjAddr: 0xA4BC, symBinAddr: 0x10000BF14, symSize: 0xE8 }
  - { offsetInCU: 0x1DC51, offset: 0x1DC51, size: 0x8, addend: 0x0, symName: __ZNSt3__15dequeIP7DAGNodeNS_9allocatorIS2_EEE5beginB8ue170006Ev, symObjAddr: 0xA5A4, symBinAddr: 0x10000BFFC, symSize: 0xA8 }
  - { offsetInCU: 0x1DC86, offset: 0x1DC86, size: 0x8, addend: 0x0, symName: __ZNSt3__116__deque_iteratorIP7DAGNodePS2_RS2_PS3_lLl512EEppB8ue170006Ev, symObjAddr: 0xA680, symBinAddr: 0x10000C0D8, symSize: 0x70 }
  - { offsetInCU: 0x1DCAC, offset: 0x1DCAC, size: 0x8, addend: 0x0, symName: __ZNSt3__113unordered_setIP7DAGNodeNS_4hashIS2_EENS_8equal_toIS2_EENS_9allocatorIS2_EEED2B8ue170006Ev, symObjAddr: 0xA720, symBinAddr: 0x10000C178, symSize: 0x2C }
  - { offsetInCU: 0x1DCD6, offset: 0x1DCD6, size: 0x8, addend: 0x0, symName: __ZNSt3__112__hash_tableIP7DAGNodeNS_4hashIS2_EENS_8equal_toIS2_EENS_9allocatorIS2_EEED1Ev, symObjAddr: 0xA74C, symBinAddr: 0x10000C1A4, symSize: 0x2C }
  - { offsetInCU: 0x1DD02, offset: 0x1DD02, size: 0x8, addend: 0x0, symName: __ZNSt3__112__hash_tableIP7DAGNodeNS_4hashIS2_EENS_8equal_toIS2_EENS_9allocatorIS2_EEED2Ev, symObjAddr: 0xA778, symBinAddr: 0x10000C1D0, symSize: 0x48 }
  - { offsetInCU: 0x1DD2E, offset: 0x1DD2E, size: 0x8, addend: 0x0, symName: __ZNSt3__112__hash_tableIP7DAGNodeNS_4hashIS2_EENS_8equal_toIS2_EENS_9allocatorIS2_EEE17__deallocate_nodeEPNS_16__hash_node_baseIPNS_11__hash_nodeIS2_PvEEEE, symObjAddr: 0xA7C0, symBinAddr: 0x10000C218, symSize: 0x98 }
  - { offsetInCU: 0x1DDA1, offset: 0x1DDA1, size: 0x8, addend: 0x0, symName: __ZN3DAGC2Ev, symObjAddr: 0xA858, symBinAddr: 0x10000C2B0, symSize: 0x2C }
  - { offsetInCU: 0x1DDCD, offset: 0x1DDCD, size: 0x8, addend: 0x0, symName: __ZNSt3__113unordered_mapINS_12basic_stringIcNS_11char_traitsIcEENS_9allocatorIcEEEEP7DAGNodeNS_4hashIS6_EENS_8equal_toIS6_EENS4_INS_4pairIKS6_S8_EEEEEC1B8ue170006Ev, symObjAddr: 0xA884, symBinAddr: 0x10000C2DC, symSize: 0x2C }
  - { offsetInCU: 0x1DDF7, offset: 0x1DDF7, size: 0x8, addend: 0x0, symName: __ZNSt3__113unordered_mapINS_12basic_stringIcNS_11char_traitsIcEENS_9allocatorIcEEEEP7DAGNodeNS_4hashIS6_EENS_8equal_toIS6_EENS4_INS_4pairIKS6_S8_EEEEEC2B8ue170006Ev, symObjAddr: 0xA8B0, symBinAddr: 0x10000C308, symSize: 0x2C }
  - { offsetInCU: 0x1DE21, offset: 0x1DE21, size: 0x8, addend: 0x0, symName: __ZNSt3__112__hash_tableINS_17__hash_value_typeINS_12basic_stringIcNS_11char_traitsIcEENS_9allocatorIcEEEEP7DAGNodeEENS_22__unordered_map_hasherIS7_SA_NS_4hashIS7_EENS_8equal_toIS7_EELb1EEENS_21__unordered_map_equalIS7_SA_SF_SD_Lb1EEENS5_ISA_EEEC1Ev, symObjAddr: 0xA8DC, symBinAddr: 0x10000C334, symSize: 0x2C }
  - { offsetInCU: 0x1DE4D, offset: 0x1DE4D, size: 0x8, addend: 0x0, symName: __ZNSt3__112__hash_tableINS_17__hash_value_typeINS_12basic_stringIcNS_11char_traitsIcEENS_9allocatorIcEEEEP7DAGNodeEENS_22__unordered_map_hasherIS7_SA_NS_4hashIS7_EENS_8equal_toIS7_EELb1EEENS_21__unordered_map_equalIS7_SA_SF_SD_Lb1EEENS5_ISA_EEEC2Ev, symObjAddr: 0xA908, symBinAddr: 0x10000C360, symSize: 0xA4 }
  - { offsetInCU: 0x1DE79, offset: 0x1DE79, size: 0x8, addend: 0x0, symName: __ZNSt3__110unique_ptrIA_PNS_16__hash_node_baseIPNS_11__hash_nodeINS_17__hash_value_typeINS_12basic_stringIcNS_11char_traitsIcEENS_9allocatorIcEEEEP7DAGNodeEEPvEEEENS_25__bucket_list_deallocatorINS7_ISH_EEEEEC1B8ue170006ILb1EvEEv, symObjAddr: 0xA9AC, symBinAddr: 0x10000C404, symSize: 0x2C }
  - { offsetInCU: 0x1DEAE, offset: 0x1DEAE, size: 0x8, addend: 0x0, symName: __ZNSt3__117__compressed_pairINS_16__hash_node_baseIPNS_11__hash_nodeINS_17__hash_value_typeINS_12basic_stringIcNS_11char_traitsIcEENS_9allocatorIcEEEEP7DAGNodeEEPvEEEENS7_ISE_EEEC1B8ue170006ILb1EvEEv, symObjAddr: 0xA9D8, symBinAddr: 0x10000C430, symSize: 0x2C }
  - { offsetInCU: 0x1DEE3, offset: 0x1DEE3, size: 0x8, addend: 0x0, symName: __ZNSt3__117__compressed_pairImNS_22__unordered_map_hasherINS_12basic_stringIcNS_11char_traitsIcEENS_9allocatorIcEEEENS_17__hash_value_typeIS7_P7DAGNodeEENS_4hashIS7_EENS_8equal_toIS7_EELb1EEEEC1B8ue170006IiNS_18__default_init_tagEEEOT_OT0_, symObjAddr: 0xAA04, symBinAddr: 0x10000C45C, symSize: 0x3C }
  - { offsetInCU: 0x1DF3B, offset: 0x1DF3B, size: 0x8, addend: 0x0, symName: __ZNSt3__117__compressed_pairIfNS_21__unordered_map_equalINS_12basic_stringIcNS_11char_traitsIcEENS_9allocatorIcEEEENS_17__hash_value_typeIS7_P7DAGNodeEENS_8equal_toIS7_EENS_4hashIS7_EELb1EEEEC1B8ue170006IfNS_18__default_init_tagEEEOT_OT0_, symObjAddr: 0xAA40, symBinAddr: 0x10000C498, symSize: 0x3C }
  - { offsetInCU: 0x1DF93, offset: 0x1DF93, size: 0x8, addend: 0x0, symName: __ZNSt3__110unique_ptrIA_PNS_16__hash_node_baseIPNS_11__hash_nodeINS_17__hash_value_typeINS_12basic_stringIcNS_11char_traitsIcEENS_9allocatorIcEEEEP7DAGNodeEEPvEEEENS_25__bucket_list_deallocatorINS7_ISH_EEEEED1B8ue170006Ev, symObjAddr: 0xAA7C, symBinAddr: 0x10000C4D4, symSize: 0x2C }
  - { offsetInCU: 0x1DFBD, offset: 0x1DFBD, size: 0x8, addend: 0x0, symName: __ZNSt3__110unique_ptrIA_PNS_16__hash_node_baseIPNS_11__hash_nodeINS_17__hash_value_typeINS_12basic_stringIcNS_11char_traitsIcEENS_9allocatorIcEEEEP7DAGNodeEEPvEEEENS_25__bucket_list_deallocatorINS7_ISH_EEEEEC2B8ue170006ILb1EvEEv, symObjAddr: 0xAAA8, symBinAddr: 0x10000C500, symSize: 0x50 }
  - { offsetInCU: 0x1DFF2, offset: 0x1DFF2, size: 0x8, addend: 0x0, symName: __ZNSt3__117__compressed_pairIPPNS_16__hash_node_baseIPNS_11__hash_nodeINS_17__hash_value_typeINS_12basic_stringIcNS_11char_traitsIcEENS_9allocatorIcEEEEP7DAGNodeEEPvEEEENS_25__bucket_list_deallocatorINS7_ISH_EEEEEC1B8ue170006INS_16__value_init_tagESO_EEOT_OT0_, symObjAddr: 0xAAF8, symBinAddr: 0x10000C550, symSize: 0x3C }
  - { offsetInCU: 0x1E04A, offset: 0x1E04A, size: 0x8, addend: 0x0, symName: __ZNSt3__117__compressed_pairIPPNS_16__hash_node_baseIPNS_11__hash_nodeINS_17__hash_value_typeINS_12basic_stringIcNS_11char_traitsIcEENS_9allocatorIcEEEEP7DAGNodeEEPvEEEENS_25__bucket_list_deallocatorINS7_ISH_EEEEEC2B8ue170006INS_16__value_init_tagESO_EEOT_OT0_, symObjAddr: 0xAB34, symBinAddr: 0x10000C58C, symSize: 0x40 }
  - { offsetInCU: 0x1E0A2, offset: 0x1E0A2, size: 0x8, addend: 0x0, symName: __ZNSt3__122__compressed_pair_elemIPPNS_16__hash_node_baseIPNS_11__hash_nodeINS_17__hash_value_typeINS_12basic_stringIcNS_11char_traitsIcEENS_9allocatorIcEEEEP7DAGNodeEEPvEEEELi0ELb0EEC2B8ue170006ENS_16__value_init_tagE, symObjAddr: 0xAB74, symBinAddr: 0x10000C5CC, symSize: 0x18 }
  - { offsetInCU: 0x1E0D6, offset: 0x1E0D6, size: 0x8, addend: 0x0, symName: __ZNSt3__122__compressed_pair_elemINS_25__bucket_list_deallocatorINS_9allocatorIPNS_16__hash_node_baseIPNS_11__hash_nodeINS_17__hash_value_typeINS_12basic_stringIcNS_11char_traitsIcEENS2_IcEEEEP7DAGNodeEEPvEEEEEEEELi1ELb0EEC2B8ue170006ENS_16__value_init_tagE, symObjAddr: 0xAB8C, symBinAddr: 0x10000C5E4, symSize: 0x2C }
  - { offsetInCU: 0x1E10A, offset: 0x1E10A, size: 0x8, addend: 0x0, symName: __ZNSt3__125__bucket_list_deallocatorINS_9allocatorIPNS_16__hash_node_baseIPNS_11__hash_nodeINS_17__hash_value_typeINS_12basic_stringIcNS_11char_traitsIcEENS1_IcEEEEP7DAGNodeEEPvEEEEEEEC1B8ue170006Ev, symObjAddr: 0xABB8, symBinAddr: 0x10000C610, symSize: 0x2C }
  - { offsetInCU: 0x1E134, offset: 0x1E134, size: 0x8, addend: 0x0, symName: __ZNSt3__125__bucket_list_deallocatorINS_9allocatorIPNS_16__hash_node_baseIPNS_11__hash_nodeINS_17__hash_value_typeINS_12basic_stringIcNS_11char_traitsIcEENS1_IcEEEEP7DAGNodeEEPvEEEEEEEC2B8ue170006Ev, symObjAddr: 0xABE4, symBinAddr: 0x10000C63C, symSize: 0x38 }
  - { offsetInCU: 0x1E15E, offset: 0x1E15E, size: 0x8, addend: 0x0, symName: __ZNSt3__117__compressed_pairImNS_9allocatorIPNS_16__hash_node_baseIPNS_11__hash_nodeINS_17__hash_value_typeINS_12basic_stringIcNS_11char_traitsIcEENS1_IcEEEEP7DAGNodeEEPvEEEEEEEC1B8ue170006IiNS_18__default_init_tagEEEOT_OT0_, symObjAddr: 0xAC1C, symBinAddr: 0x10000C674, symSize: 0x3C }
  - { offsetInCU: 0x1E1B6, offset: 0x1E1B6, size: 0x8, addend: 0x0, symName: __ZNSt3__117__compressed_pairImNS_9allocatorIPNS_16__hash_node_baseIPNS_11__hash_nodeINS_17__hash_value_typeINS_12basic_stringIcNS_11char_traitsIcEENS1_IcEEEEP7DAGNodeEEPvEEEEEEEC2B8ue170006IiNS_18__default_init_tagEEEOT_OT0_, symObjAddr: 0xAC58, symBinAddr: 0x10000C6B0, symSize: 0x40 }
  - { offsetInCU: 0x1E20E, offset: 0x1E20E, size: 0x8, addend: 0x0, symName: __ZNSt3__122__compressed_pair_elemINS_9allocatorIPNS_16__hash_node_baseIPNS_11__hash_nodeINS_17__hash_value_typeINS_12basic_stringIcNS_11char_traitsIcEENS1_IcEEEEP7DAGNodeEEPvEEEEEELi1ELb1EEC2B8ue170006ENS_18__default_init_tagE, symObjAddr: 0xAC98, symBinAddr: 0x10000C6F0, symSize: 0x2C }
  - { offsetInCU: 0x1E242, offset: 0x1E242, size: 0x8, addend: 0x0, symName: __ZNSt3__19allocatorIPNS_16__hash_node_baseIPNS_11__hash_nodeINS_17__hash_value_typeINS_12basic_stringIcNS_11char_traitsIcEENS0_IcEEEEP7DAGNodeEEPvEEEEEC2B8ue170006Ev, symObjAddr: 0xACC4, symBinAddr: 0x10000C71C, symSize: 0x2C }
  - { offsetInCU: 0x1E26C, offset: 0x1E26C, size: 0x8, addend: 0x0, symName: __ZNSt3__116__non_trivial_ifILb1ENS_9allocatorIPNS_16__hash_node_baseIPNS_11__hash_nodeINS_17__hash_value_typeINS_12basic_stringIcNS_11char_traitsIcEENS1_IcEEEEP7DAGNodeEEPvEEEEEEEC2B8ue170006Ev, symObjAddr: 0xACF0, symBinAddr: 0x10000C748, symSize: 0x14 }
  - { offsetInCU: 0x1E296, offset: 0x1E296, size: 0x8, addend: 0x0, symName: __ZNSt3__117__compressed_pairINS_16__hash_node_baseIPNS_11__hash_nodeINS_17__hash_value_typeINS_12basic_stringIcNS_11char_traitsIcEENS_9allocatorIcEEEEP7DAGNodeEEPvEEEENS7_ISE_EEEC2B8ue170006ILb1EvEEv, symObjAddr: 0xAD04, symBinAddr: 0x10000C75C, symSize: 0x34 }
  - { offsetInCU: 0x1E2CB, offset: 0x1E2CB, size: 0x8, addend: 0x0, symName: __ZNSt3__122__compressed_pair_elemINS_16__hash_node_baseIPNS_11__hash_nodeINS_17__hash_value_typeINS_12basic_stringIcNS_11char_traitsIcEENS_9allocatorIcEEEEP7DAGNodeEEPvEEEELi0ELb0EEC2B8ue170006ENS_16__value_init_tagE, symObjAddr: 0xAD38, symBinAddr: 0x10000C790, symSize: 0x2C }
  - { offsetInCU: 0x1E2FF, offset: 0x1E2FF, size: 0x8, addend: 0x0, symName: __ZNSt3__122__compressed_pair_elemINS_9allocatorINS_11__hash_nodeINS_17__hash_value_typeINS_12basic_stringIcNS_11char_traitsIcEENS1_IcEEEEP7DAGNodeEEPvEEEELi1ELb1EEC2B8ue170006ENS_16__value_init_tagE, symObjAddr: 0xAD64, symBinAddr: 0x10000C7BC, symSize: 0x2C }
  - { offsetInCU: 0x1E333, offset: 0x1E333, size: 0x8, addend: 0x0, symName: __ZNSt3__116__hash_node_baseIPNS_11__hash_nodeINS_17__hash_value_typeINS_12basic_stringIcNS_11char_traitsIcEENS_9allocatorIcEEEEP7DAGNodeEEPvEEEC1B8ue170006Ev, symObjAddr: 0xAD90, symBinAddr: 0x10000C7E8, symSize: 0x2C }
  - { offsetInCU: 0x1E35D, offset: 0x1E35D, size: 0x8, addend: 0x0, symName: __ZNSt3__116__hash_node_baseIPNS_11__hash_nodeINS_17__hash_value_typeINS_12basic_stringIcNS_11char_traitsIcEENS_9allocatorIcEEEEP7DAGNodeEEPvEEEC2B8ue170006Ev, symObjAddr: 0xADBC, symBinAddr: 0x10000C814, symSize: 0x18 }
  - { offsetInCU: 0x1E387, offset: 0x1E387, size: 0x8, addend: 0x0, symName: __ZNSt3__19allocatorINS_11__hash_nodeINS_17__hash_value_typeINS_12basic_stringIcNS_11char_traitsIcEENS0_IcEEEEP7DAGNodeEEPvEEEC2B8ue170006Ev, symObjAddr: 0xADD4, symBinAddr: 0x10000C82C, symSize: 0x2C }
  - { offsetInCU: 0x1E3B1, offset: 0x1E3B1, size: 0x8, addend: 0x0, symName: __ZNSt3__116__non_trivial_ifILb1ENS_9allocatorINS_11__hash_nodeINS_17__hash_value_typeINS_12basic_stringIcNS_11char_traitsIcEENS1_IcEEEEP7DAGNodeEEPvEEEEEC2B8ue170006Ev, symObjAddr: 0xAE00, symBinAddr: 0x10000C858, symSize: 0x14 }
  - { offsetInCU: 0x1E3DB, offset: 0x1E3DB, size: 0x8, addend: 0x0, symName: __ZNSt3__117__compressed_pairImNS_22__unordered_map_hasherINS_12basic_stringIcNS_11char_traitsIcEENS_9allocatorIcEEEENS_17__hash_value_typeIS7_P7DAGNodeEENS_4hashIS7_EENS_8equal_toIS7_EELb1EEEEC2B8ue170006IiNS_18__default_init_tagEEEOT_OT0_, symObjAddr: 0xAE14, symBinAddr: 0x10000C86C, symSize: 0x40 }
  - { offsetInCU: 0x1E433, offset: 0x1E433, size: 0x8, addend: 0x0, symName: __ZNSt3__122__compressed_pair_elemINS_22__unordered_map_hasherINS_12basic_stringIcNS_11char_traitsIcEENS_9allocatorIcEEEENS_17__hash_value_typeIS7_P7DAGNodeEENS_4hashIS7_EENS_8equal_toIS7_EELb1EEELi1ELb1EEC2B8ue170006ENS_18__default_init_tagE, symObjAddr: 0xAE54, symBinAddr: 0x10000C8AC, symSize: 0x2C }
  - { offsetInCU: 0x1E467, offset: 0x1E467, size: 0x8, addend: 0x0, symName: __ZNSt3__122__unordered_map_hasherINS_12basic_stringIcNS_11char_traitsIcEENS_9allocatorIcEEEENS_17__hash_value_typeIS6_P7DAGNodeEENS_4hashIS6_EENS_8equal_toIS6_EELb1EEC2B8ue170006Ev, symObjAddr: 0xAE80, symBinAddr: 0x10000C8D8, symSize: 0x14 }
  - { offsetInCU: 0x1E491, offset: 0x1E491, size: 0x8, addend: 0x0, symName: __ZNSt3__117__compressed_pairIfNS_21__unordered_map_equalINS_12basic_stringIcNS_11char_traitsIcEENS_9allocatorIcEEEENS_17__hash_value_typeIS7_P7DAGNodeEENS_8equal_toIS7_EENS_4hashIS7_EELb1EEEEC2B8ue170006IfNS_18__default_init_tagEEEOT_OT0_, symObjAddr: 0xAE94, symBinAddr: 0x10000C8EC, symSize: 0x40 }
  - { offsetInCU: 0x1E4E9, offset: 0x1E4E9, size: 0x8, addend: 0x0, symName: __ZNSt3__122__compressed_pair_elemINS_21__unordered_map_equalINS_12basic_stringIcNS_11char_traitsIcEENS_9allocatorIcEEEENS_17__hash_value_typeIS7_P7DAGNodeEENS_8equal_toIS7_EENS_4hashIS7_EELb1EEELi1ELb1EEC2B8ue170006ENS_18__default_init_tagE, symObjAddr: 0xAED4, symBinAddr: 0x10000C92C, symSize: 0x2C }
  - { offsetInCU: 0x1E51D, offset: 0x1E51D, size: 0x8, addend: 0x0, symName: __ZNSt3__121__unordered_map_equalINS_12basic_stringIcNS_11char_traitsIcEENS_9allocatorIcEEEENS_17__hash_value_typeIS6_P7DAGNodeEENS_8equal_toIS6_EENS_4hashIS6_EELb1EEC2B8ue170006Ev, symObjAddr: 0xAF00, symBinAddr: 0x10000C958, symSize: 0x14 }
  - { offsetInCU: 0x1E547, offset: 0x1E547, size: 0x8, addend: 0x0, symName: __ZNSt3__110unique_ptrIA_PNS_16__hash_node_baseIPNS_11__hash_nodeINS_17__hash_value_typeINS_12basic_stringIcNS_11char_traitsIcEENS_9allocatorIcEEEEP7DAGNodeEEPvEEEENS_25__bucket_list_deallocatorINS7_ISH_EEEEED2B8ue170006Ev, symObjAddr: 0xAF14, symBinAddr: 0x10000C96C, symSize: 0x30 }
  - { offsetInCU: 0x1E571, offset: 0x1E571, size: 0x8, addend: 0x0, symName: __ZNSt3__110unique_ptrIA_PNS_16__hash_node_baseIPNS_11__hash_nodeINS_17__hash_value_typeINS_12basic_stringIcNS_11char_traitsIcEENS_9allocatorIcEEEEP7DAGNodeEEPvEEEENS_25__bucket_list_deallocatorINS7_ISH_EEEEE5resetB8ue170006EDn, symObjAddr: 0xAF44, symBinAddr: 0x10000C99C, symSize: 0x6C }
  - { offsetInCU: 0x1E5B1, offset: 0x1E5B1, size: 0x8, addend: 0x0, symName: __ZNSt3__117__compressed_pairIPPNS_16__hash_node_baseIPNS_11__hash_nodeINS_17__hash_value_typeINS_12basic_stringIcNS_11char_traitsIcEENS_9allocatorIcEEEEP7DAGNodeEEPvEEEENS_25__bucket_list_deallocatorINS7_ISH_EEEEE5firstB8ue170006Ev, symObjAddr: 0xAFB0, symBinAddr: 0x10000CA08, symSize: 0x24 }
  - { offsetInCU: 0x1E5D7, offset: 0x1E5D7, size: 0x8, addend: 0x0, symName: __ZNSt3__117__compressed_pairIPPNS_16__hash_node_baseIPNS_11__hash_nodeINS_17__hash_value_typeINS_12basic_stringIcNS_11char_traitsIcEENS_9allocatorIcEEEEP7DAGNodeEEPvEEEENS_25__bucket_list_deallocatorINS7_ISH_EEEEE6secondB8ue170006Ev, symObjAddr: 0xAFD4, symBinAddr: 0x10000CA2C, symSize: 0x28 }
  - { offsetInCU: 0x1E5FD, offset: 0x1E5FD, size: 0x8, addend: 0x0, symName: __ZNSt3__125__bucket_list_deallocatorINS_9allocatorIPNS_16__hash_node_baseIPNS_11__hash_nodeINS_17__hash_value_typeINS_12basic_stringIcNS_11char_traitsIcEENS1_IcEEEEP7DAGNodeEEPvEEEEEEEclB8ue170006EPSH_, symObjAddr: 0xAFFC, symBinAddr: 0x10000CA54, symSize: 0x58 }
  - { offsetInCU: 0x1E632, offset: 0x1E632, size: 0x8, addend: 0x0, symName: __ZNSt3__122__compressed_pair_elemIPPNS_16__hash_node_baseIPNS_11__hash_nodeINS_17__hash_value_typeINS_12basic_stringIcNS_11char_traitsIcEENS_9allocatorIcEEEEP7DAGNodeEEPvEEEELi0ELb0EE5__getB8ue170006Ev, symObjAddr: 0xB054, symBinAddr: 0x10000CAAC, symSize: 0x14 }
  - { offsetInCU: 0x1E658, offset: 0x1E658, size: 0x8, addend: 0x0, symName: __ZNSt3__122__compressed_pair_elemINS_25__bucket_list_deallocatorINS_9allocatorIPNS_16__hash_node_baseIPNS_11__hash_nodeINS_17__hash_value_typeINS_12basic_stringIcNS_11char_traitsIcEENS2_IcEEEEP7DAGNodeEEPvEEEEEEEELi1ELb0EE5__getB8ue170006Ev, symObjAddr: 0xB068, symBinAddr: 0x10000CAC0, symSize: 0x14 }
  - { offsetInCU: 0x1E67E, offset: 0x1E67E, size: 0x8, addend: 0x0, symName: __ZNSt3__116allocator_traitsINS_9allocatorIPNS_16__hash_node_baseIPNS_11__hash_nodeINS_17__hash_value_typeINS_12basic_stringIcNS_11char_traitsIcEENS1_IcEEEEP7DAGNodeEEPvEEEEEEE10deallocateB8ue170006ERSI_PSH_m, symObjAddr: 0xB07C, symBinAddr: 0x10000CAD4, symSize: 0x34 }
  - { offsetInCU: 0x1E6C0, offset: 0x1E6C0, size: 0x8, addend: 0x0, symName: __ZNSt3__125__bucket_list_deallocatorINS_9allocatorIPNS_16__hash_node_baseIPNS_11__hash_nodeINS_17__hash_value_typeINS_12basic_stringIcNS_11char_traitsIcEENS1_IcEEEEP7DAGNodeEEPvEEEEEEE7__allocB8ue170006Ev, symObjAddr: 0xB0B0, symBinAddr: 0x10000CB08, symSize: 0x24 }
  - { offsetInCU: 0x1E6E6, offset: 0x1E6E6, size: 0x8, addend: 0x0, symName: __ZNSt3__125__bucket_list_deallocatorINS_9allocatorIPNS_16__hash_node_baseIPNS_11__hash_nodeINS_17__hash_value_typeINS_12basic_stringIcNS_11char_traitsIcEENS1_IcEEEEP7DAGNodeEEPvEEEEEEE4sizeB8ue170006Ev, symObjAddr: 0xB0D4, symBinAddr: 0x10000CB2C, symSize: 0x24 }
  - { offsetInCU: 0x1E70C, offset: 0x1E70C, size: 0x8, addend: 0x0, symName: __ZNSt3__19allocatorIPNS_16__hash_node_baseIPNS_11__hash_nodeINS_17__hash_value_typeINS_12basic_stringIcNS_11char_traitsIcEENS0_IcEEEEP7DAGNodeEEPvEEEEE10deallocateB8ue170006EPSG_m, symObjAddr: 0xB0F8, symBinAddr: 0x10000CB50, symSize: 0x70 }
  - { offsetInCU: 0x1E74E, offset: 0x1E74E, size: 0x8, addend: 0x0, symName: __ZNSt3__117__compressed_pairImNS_9allocatorIPNS_16__hash_node_baseIPNS_11__hash_nodeINS_17__hash_value_typeINS_12basic_stringIcNS_11char_traitsIcEENS1_IcEEEEP7DAGNodeEEPvEEEEEEE6secondB8ue170006Ev, symObjAddr: 0xB168, symBinAddr: 0x10000CBC0, symSize: 0x24 }
  - { offsetInCU: 0x1E774, offset: 0x1E774, size: 0x8, addend: 0x0, symName: __ZNSt3__122__compressed_pair_elemINS_9allocatorIPNS_16__hash_node_baseIPNS_11__hash_nodeINS_17__hash_value_typeINS_12basic_stringIcNS_11char_traitsIcEENS1_IcEEEEP7DAGNodeEEPvEEEEEELi1ELb1EE5__getB8ue170006Ev, symObjAddr: 0xB18C, symBinAddr: 0x10000CBE4, symSize: 0x14 }
  - { offsetInCU: 0x1E79A, offset: 0x1E79A, size: 0x8, addend: 0x0, symName: __ZNSt3__117__compressed_pairImNS_9allocatorIPNS_16__hash_node_baseIPNS_11__hash_nodeINS_17__hash_value_typeINS_12basic_stringIcNS_11char_traitsIcEENS1_IcEEEEP7DAGNodeEEPvEEEEEEE5firstB8ue170006Ev, symObjAddr: 0xB1A0, symBinAddr: 0x10000CBF8, symSize: 0x24 }
  - { offsetInCU: 0x1E7C0, offset: 0x1E7C0, size: 0x8, addend: 0x0, symName: __ZN3DAG10createNodeERKNSt3__112basic_stringIcNS0_11char_traitsIcEENS0_9allocatorIcEEEE, symObjAddr: 0xB1C4, symBinAddr: 0x10000CC1C, symSize: 0x144 }
  - { offsetInCU: 0x1E7F4, offset: 0x1E7F4, size: 0x8, addend: 0x0, symName: __ZNSt3__113unordered_mapINS_12basic_stringIcNS_11char_traitsIcEENS_9allocatorIcEEEEP7DAGNodeNS_4hashIS6_EENS_8equal_toIS6_EENS4_INS_4pairIKS6_S8_EEEEE4findB8ue170006ERSE_, symObjAddr: 0xB338, symBinAddr: 0x10000CD90, symSize: 0x40 }
  - { offsetInCU: 0x1E829, offset: 0x1E829, size: 0x8, addend: 0x0, symName: __ZN7DAGNodeC1ENSt3__112basic_stringIcNS0_11char_traitsIcEENS0_9allocatorIcEEEE, symObjAddr: 0xB378, symBinAddr: 0x10000CDD0, symSize: 0x34 }
  - { offsetInCU: 0x1E862, offset: 0x1E862, size: 0x8, addend: 0x0, symName: __ZNSt3__113unordered_mapINS_12basic_stringIcNS_11char_traitsIcEENS_9allocatorIcEEEEP7DAGNodeNS_4hashIS6_EENS_8equal_toIS6_EENS4_INS_4pairIKS6_S8_EEEEEixERSE_, symObjAddr: 0xB3AC, symBinAddr: 0x10000CE04, symSize: 0x128 }
  - { offsetInCU: 0x1E8C7, offset: 0x1E8C7, size: 0x8, addend: 0x0, symName: __ZNSt3__112__hash_tableINS_17__hash_value_typeINS_12basic_stringIcNS_11char_traitsIcEENS_9allocatorIcEEEEP7DAGNodeEENS_22__unordered_map_hasherIS7_SA_NS_4hashIS7_EENS_8equal_toIS7_EELb1EEENS_21__unordered_map_equalIS7_SA_SF_SD_Lb1EEENS5_ISA_EEE4findIS7_EENS_15__hash_iteratorIPNS_11__hash_nodeISA_PvEEEERKT_, symObjAddr: 0xB4D4, symBinAddr: 0x10000CF2C, symSize: 0x1B0 }
  - { offsetInCU: 0x1E952, offset: 0x1E952, size: 0x8, addend: 0x0, symName: __ZNSt3__112__hash_tableINS_17__hash_value_typeINS_12basic_stringIcNS_11char_traitsIcEENS_9allocatorIcEEEEP7DAGNodeEENS_22__unordered_map_hasherIS7_SA_NS_4hashIS7_EENS_8equal_toIS7_EELb1EEENS_21__unordered_map_equalIS7_SA_SF_SD_Lb1EEENS5_ISA_EEE13hash_functionB8ue170006Ev, symObjAddr: 0xB684, symBinAddr: 0x10000D0DC, symSize: 0x28 }
  - { offsetInCU: 0x1E978, offset: 0x1E978, size: 0x8, addend: 0x0, symName: __ZNKSt3__122__unordered_map_hasherINS_12basic_stringIcNS_11char_traitsIcEENS_9allocatorIcEEEENS_17__hash_value_typeIS6_P7DAGNodeEENS_4hashIS6_EENS_8equal_toIS6_EELb1EEclB8ue170006ERKS6_, symObjAddr: 0xB6AC, symBinAddr: 0x10000D104, symSize: 0x2C }
  - { offsetInCU: 0x1E9AD, offset: 0x1E9AD, size: 0x8, addend: 0x0, symName: __ZNKSt3__112__hash_tableINS_17__hash_value_typeINS_12basic_stringIcNS_11char_traitsIcEENS_9allocatorIcEEEEP7DAGNodeEENS_22__unordered_map_hasherIS7_SA_NS_4hashIS7_EENS_8equal_toIS7_EELb1EEENS_21__unordered_map_equalIS7_SA_SF_SD_Lb1EEENS5_ISA_EEE12bucket_countB8ue170006Ev, symObjAddr: 0xB6D8, symBinAddr: 0x10000D130, symSize: 0x28 }
  - { offsetInCU: 0x1E9D3, offset: 0x1E9D3, size: 0x8, addend: 0x0, symName: __ZNKSt3__110unique_ptrIA_PNS_16__hash_node_baseIPNS_11__hash_nodeINS_17__hash_value_typeINS_12basic_stringIcNS_11char_traitsIcEENS_9allocatorIcEEEEP7DAGNodeEEPvEEEENS_25__bucket_list_deallocatorINS7_ISH_EEEEEixB8ue170006Em, symObjAddr: 0xB700, symBinAddr: 0x10000D158, symSize: 0x34 }
  - { offsetInCU: 0x1EA08, offset: 0x1EA08, size: 0x8, addend: 0x0, symName: __ZNKSt3__116__hash_node_baseIPNS_11__hash_nodeINS_17__hash_value_typeINS_12basic_stringIcNS_11char_traitsIcEENS_9allocatorIcEEEEP7DAGNodeEEPvEEE6__hashB8ue170006Ev, symObjAddr: 0xB734, symBinAddr: 0x10000D18C, symSize: 0x18 }
  - { offsetInCU: 0x1EA2E, offset: 0x1EA2E, size: 0x8, addend: 0x0, symName: __ZNSt3__112__hash_tableINS_17__hash_value_typeINS_12basic_stringIcNS_11char_traitsIcEENS_9allocatorIcEEEEP7DAGNodeEENS_22__unordered_map_hasherIS7_SA_NS_4hashIS7_EENS_8equal_toIS7_EELb1EEENS_21__unordered_map_equalIS7_SA_SF_SD_Lb1EEENS5_ISA_EEE6key_eqB8ue170006Ev, symObjAddr: 0xB74C, symBinAddr: 0x10000D1A4, symSize: 0x28 }
  - { offsetInCU: 0x1EA54, offset: 0x1EA54, size: 0x8, addend: 0x0, symName: __ZNKSt3__121__unordered_map_equalINS_12basic_stringIcNS_11char_traitsIcEENS_9allocatorIcEEEENS_17__hash_value_typeIS6_P7DAGNodeEENS_8equal_toIS6_EENS_4hashIS6_EELb1EEclB8ue170006ERKSA_RKS6_, symObjAddr: 0xB774, symBinAddr: 0x10000D1CC, symSize: 0x48 }
  - { offsetInCU: 0x1EA98, offset: 0x1EA98, size: 0x8, addend: 0x0, symName: __ZNSt3__117__compressed_pairImNS_22__unordered_map_hasherINS_12basic_stringIcNS_11char_traitsIcEENS_9allocatorIcEEEENS_17__hash_value_typeIS7_P7DAGNodeEENS_4hashIS7_EENS_8equal_toIS7_EELb1EEEE6secondB8ue170006Ev, symObjAddr: 0xB7BC, symBinAddr: 0x10000D214, symSize: 0x24 }
  - { offsetInCU: 0x1EABE, offset: 0x1EABE, size: 0x8, addend: 0x0, symName: __ZNSt3__122__compressed_pair_elemINS_22__unordered_map_hasherINS_12basic_stringIcNS_11char_traitsIcEENS_9allocatorIcEEEENS_17__hash_value_typeIS7_P7DAGNodeEENS_4hashIS7_EENS_8equal_toIS7_EELb1EEELi1ELb1EE5__getB8ue170006Ev, symObjAddr: 0xB7E0, symBinAddr: 0x10000D238, symSize: 0x14 }
  - { offsetInCU: 0x1EAE4, offset: 0x1EAE4, size: 0x8, addend: 0x0, symName: __ZNKSt3__113__string_hashIcNS_9allocatorIcEEEclB8ue170006ERKNS_12basic_stringIcNS_11char_traitsIcEES2_EE, symObjAddr: 0xB7F4, symBinAddr: 0x10000D24C, symSize: 0x78 }
  - { offsetInCU: 0x1EB19, offset: 0x1EB19, size: 0x8, addend: 0x0, symName: __ZNKSt3__112basic_stringIcNS_11char_traitsIcEENS_9allocatorIcEEE4dataB8ue170006Ev, symObjAddr: 0xB8A8, symBinAddr: 0x10000D300, symSize: 0x28 }
  - { offsetInCU: 0x1EB3F, offset: 0x1EB3F, size: 0x8, addend: 0x0, symName: __ZNKSt3__112basic_stringIcNS_11char_traitsIcEENS_9allocatorIcEEE4sizeB8ue170006Ev, symObjAddr: 0xB8D0, symBinAddr: 0x10000D328, symSize: 0x54 }
  - { offsetInCU: 0x1EB65, offset: 0x1EB65, size: 0x8, addend: 0x0, symName: __ZNKSt3__112basic_stringIcNS_11char_traitsIcEENS_9allocatorIcEEE13__get_pointerB8ue170006Ev, symObjAddr: 0xB938, symBinAddr: 0x10000D390, symSize: 0x54 }
  - { offsetInCU: 0x1EB8B, offset: 0x1EB8B, size: 0x8, addend: 0x0, symName: __ZNKSt3__112basic_stringIcNS_11char_traitsIcEENS_9allocatorIcEEE9__is_longB8ue170006Ev, symObjAddr: 0xB98C, symBinAddr: 0x10000D3E4, symSize: 0x74 }
  - { offsetInCU: 0x1EBB1, offset: 0x1EBB1, size: 0x8, addend: 0x0, symName: __ZNKSt3__112basic_stringIcNS_11char_traitsIcEENS_9allocatorIcEEE18__get_long_pointerB8ue170006Ev, symObjAddr: 0xBA00, symBinAddr: 0x10000D458, symSize: 0x28 }
  - { offsetInCU: 0x1EBD7, offset: 0x1EBD7, size: 0x8, addend: 0x0, symName: __ZNKSt3__112basic_stringIcNS_11char_traitsIcEENS_9allocatorIcEEE19__get_short_pointerB8ue170006Ev, symObjAddr: 0xBA28, symBinAddr: 0x10000D480, symSize: 0x28 }
  - { offsetInCU: 0x1EBFD, offset: 0x1EBFD, size: 0x8, addend: 0x0, symName: __ZNKSt3__117__compressed_pairINS_12basic_stringIcNS_11char_traitsIcEENS_9allocatorIcEEE5__repES5_E5firstB8ue170006Ev, symObjAddr: 0xBA50, symBinAddr: 0x10000D4A8, symSize: 0x24 }
  - { offsetInCU: 0x1EC23, offset: 0x1EC23, size: 0x8, addend: 0x0, symName: __ZNKSt3__122__compressed_pair_elemINS_12basic_stringIcNS_11char_traitsIcEENS_9allocatorIcEEE5__repELi0ELb0EE5__getB8ue170006Ev, symObjAddr: 0xBA74, symBinAddr: 0x10000D4CC, symSize: 0x14 }
  - { offsetInCU: 0x1EC49, offset: 0x1EC49, size: 0x8, addend: 0x0, symName: __ZNSt3__114pointer_traitsIPKcE10pointer_toB8ue170006ERS1_, symObjAddr: 0xBA88, symBinAddr: 0x10000D4E0, symSize: 0x14 }
  - { offsetInCU: 0x1EC6C, offset: 0x1EC6C, size: 0x8, addend: 0x0, symName: __ZNKSt3__112basic_stringIcNS_11char_traitsIcEENS_9allocatorIcEEE15__get_long_sizeB8ue170006Ev, symObjAddr: 0xBA9C, symBinAddr: 0x10000D4F4, symSize: 0x28 }
  - { offsetInCU: 0x1EC92, offset: 0x1EC92, size: 0x8, addend: 0x0, symName: __ZNKSt3__112basic_stringIcNS_11char_traitsIcEENS_9allocatorIcEEE16__get_short_sizeB8ue170006Ev, symObjAddr: 0xBAC4, symBinAddr: 0x10000D51C, symSize: 0x34 }
  - { offsetInCU: 0x1ECB8, offset: 0x1ECB8, size: 0x8, addend: 0x0, symName: __ZNKSt3__110unique_ptrIA_PNS_16__hash_node_baseIPNS_11__hash_nodeINS_17__hash_value_typeINS_12basic_stringIcNS_11char_traitsIcEENS_9allocatorIcEEEEP7DAGNodeEEPvEEEENS_25__bucket_list_deallocatorINS7_ISH_EEEEE11get_deleterB8ue170006Ev, symObjAddr: 0xBAF8, symBinAddr: 0x10000D550, symSize: 0x24 }
  - { offsetInCU: 0x1ECDE, offset: 0x1ECDE, size: 0x8, addend: 0x0, symName: __ZNKSt3__125__bucket_list_deallocatorINS_9allocatorIPNS_16__hash_node_baseIPNS_11__hash_nodeINS_17__hash_value_typeINS_12basic_stringIcNS_11char_traitsIcEENS1_IcEEEEP7DAGNodeEEPvEEEEEEE4sizeB8ue170006Ev, symObjAddr: 0xBB1C, symBinAddr: 0x10000D574, symSize: 0x28 }
  - { offsetInCU: 0x1ED04, offset: 0x1ED04, size: 0x8, addend: 0x0, symName: __ZNKSt3__117__compressed_pairIPPNS_16__hash_node_baseIPNS_11__hash_nodeINS_17__hash_value_typeINS_12basic_stringIcNS_11char_traitsIcEENS_9allocatorIcEEEEP7DAGNodeEEPvEEEENS_25__bucket_list_deallocatorINS7_ISH_EEEEE6secondB8ue170006Ev, symObjAddr: 0xBB44, symBinAddr: 0x10000D59C, symSize: 0x28 }
  - { offsetInCU: 0x1ED2A, offset: 0x1ED2A, size: 0x8, addend: 0x0, symName: __ZNKSt3__122__compressed_pair_elemINS_25__bucket_list_deallocatorINS_9allocatorIPNS_16__hash_node_baseIPNS_11__hash_nodeINS_17__hash_value_typeINS_12basic_stringIcNS_11char_traitsIcEENS2_IcEEEEP7DAGNodeEEPvEEEEEEEELi1ELb0EE5__getB8ue170006Ev, symObjAddr: 0xBB6C, symBinAddr: 0x10000D5C4, symSize: 0x14 }
  - { offsetInCU: 0x1ED50, offset: 0x1ED50, size: 0x8, addend: 0x0, symName: __ZNKSt3__117__compressed_pairImNS_9allocatorIPNS_16__hash_node_baseIPNS_11__hash_nodeINS_17__hash_value_typeINS_12basic_stringIcNS_11char_traitsIcEENS1_IcEEEEP7DAGNodeEEPvEEEEEEE5firstB8ue170006Ev, symObjAddr: 0xBB80, symBinAddr: 0x10000D5D8, symSize: 0x24 }
  - { offsetInCU: 0x1ED76, offset: 0x1ED76, size: 0x8, addend: 0x0, symName: __ZNKSt3__117__compressed_pairIPPNS_16__hash_node_baseIPNS_11__hash_nodeINS_17__hash_value_typeINS_12basic_stringIcNS_11char_traitsIcEENS_9allocatorIcEEEEP7DAGNodeEEPvEEEENS_25__bucket_list_deallocatorINS7_ISH_EEEEE5firstB8ue170006Ev, symObjAddr: 0xBBA4, symBinAddr: 0x10000D5FC, symSize: 0x24 }
  - { offsetInCU: 0x1ED9C, offset: 0x1ED9C, size: 0x8, addend: 0x0, symName: __ZNKSt3__122__compressed_pair_elemIPPNS_16__hash_node_baseIPNS_11__hash_nodeINS_17__hash_value_typeINS_12basic_stringIcNS_11char_traitsIcEENS_9allocatorIcEEEEP7DAGNodeEEPvEEEELi0ELb0EE5__getB8ue170006Ev, symObjAddr: 0xBBC8, symBinAddr: 0x10000D620, symSize: 0x14 }
  - { offsetInCU: 0x1EDC2, offset: 0x1EDC2, size: 0x8, addend: 0x0, symName: __ZNSt3__117__compressed_pairIfNS_21__unordered_map_equalINS_12basic_stringIcNS_11char_traitsIcEENS_9allocatorIcEEEENS_17__hash_value_typeIS7_P7DAGNodeEENS_8equal_toIS7_EENS_4hashIS7_EELb1EEEE6secondB8ue170006Ev, symObjAddr: 0xBBDC, symBinAddr: 0x10000D634, symSize: 0x24 }
  - { offsetInCU: 0x1EDE8, offset: 0x1EDE8, size: 0x8, addend: 0x0, symName: __ZNSt3__122__compressed_pair_elemINS_21__unordered_map_equalINS_12basic_stringIcNS_11char_traitsIcEENS_9allocatorIcEEEENS_17__hash_value_typeIS7_P7DAGNodeEENS_8equal_toIS7_EENS_4hashIS7_EELb1EEELi1ELb1EE5__getB8ue170006Ev, symObjAddr: 0xBC00, symBinAddr: 0x10000D658, symSize: 0x14 }
  - { offsetInCU: 0x1EE0E, offset: 0x1EE0E, size: 0x8, addend: 0x0, symName: __ZNKSt3__18equal_toINS_12basic_stringIcNS_11char_traitsIcEENS_9allocatorIcEEEEEclB8ue170006ERKS6_S9_, symObjAddr: 0xBC14, symBinAddr: 0x10000D66C, symSize: 0x34 }
  - { offsetInCU: 0x1EE52, offset: 0x1EE52, size: 0x8, addend: 0x0, symName: __ZNKSt3__117__hash_value_typeINS_12basic_stringIcNS_11char_traitsIcEENS_9allocatorIcEEEEP7DAGNodeE11__get_valueB8ue170006Ev, symObjAddr: 0xBC48, symBinAddr: 0x10000D6A0, symSize: 0x14 }
  - { offsetInCU: 0x1EE78, offset: 0x1EE78, size: 0x8, addend: 0x0, symName: __ZNSt3__111char_traitsIcE7compareB8ue170006EPKcS3_m, symObjAddr: 0xBDA4, symBinAddr: 0x10000D7FC, symSize: 0x64 }
  - { offsetInCU: 0x1EEB7, offset: 0x1EEB7, size: 0x8, addend: 0x0, symName: __ZN7DAGNodeC2ENSt3__112basic_stringIcNS0_11char_traitsIcEENS0_9allocatorIcEEEE, symObjAddr: 0xBE08, symBinAddr: 0x10000D860, symSize: 0x70 }
  - { offsetInCU: 0x1EEF0, offset: 0x1EEF0, size: 0x8, addend: 0x0, symName: __ZNKSt3__119__hash_map_iteratorINS_15__hash_iteratorIPNS_11__hash_nodeINS_17__hash_value_typeINS_12basic_stringIcNS_11char_traitsIcEENS_9allocatorIcEEEEP7DAGNodeEEPvEEEEEptB8ue170006Ev, symObjAddr: 0xBE78, symBinAddr: 0x10000D8D0, symSize: 0x2C }
  - { offsetInCU: 0x1EF16, offset: 0x1EF16, size: 0x8, addend: 0x0, symName: __ZNSt3__113unordered_mapINS_12basic_stringIcNS_11char_traitsIcEENS_9allocatorIcEEEEP7DAGNodeNS_4hashIS6_EENS_8equal_toIS6_EENS4_INS_4pairIKS6_S8_EEEEE25__construct_node_with_keyERSE_, symObjAddr: 0xBEA4, symBinAddr: 0x10000D8FC, symSize: 0x144 }
  - { offsetInCU: 0x1EF6C, offset: 0x1EF6C, size: 0x8, addend: 0x0, symName: __ZNSt3__112__hash_tableINS_17__hash_value_typeINS_12basic_stringIcNS_11char_traitsIcEENS_9allocatorIcEEEEP7DAGNodeEENS_22__unordered_map_hasherIS7_SA_NS_4hashIS7_EENS_8equal_toIS7_EELb1EEENS_21__unordered_map_equalIS7_SA_SF_SD_Lb1EEENS5_ISA_EEE20__node_insert_uniqueEPNS_11__hash_nodeISA_PvEE, symObjAddr: 0xBFE8, symBinAddr: 0x10000DA40, symSize: 0xC4 }
  - { offsetInCU: 0x1EFC1, offset: 0x1EFC1, size: 0x8, addend: 0x0, symName: __ZNKSt3__110unique_ptrINS_11__hash_nodeINS_17__hash_value_typeINS_12basic_stringIcNS_11char_traitsIcEENS_9allocatorIcEEEEP7DAGNodeEEPvEENS_26__hash_map_node_destructorINS6_ISD_EEEEE3getB8ue170006Ev, symObjAddr: 0xC0AC, symBinAddr: 0x10000DB04, symSize: 0x28 }
  - { offsetInCU: 0x1EFE7, offset: 0x1EFE7, size: 0x8, addend: 0x0, symName: __ZNSt3__14pairINS_19__hash_map_iteratorINS_15__hash_iteratorIPNS_11__hash_nodeINS_17__hash_value_typeINS_12basic_stringIcNS_11char_traitsIcEENS_9allocatorIcEEEEP7DAGNodeEEPvEEEEEEbEC1B8ue170006ISH_bEERKNS0_IT_T0_EE, symObjAddr: 0xC0D4, symBinAddr: 0x10000DB2C, symSize: 0x34 }
  - { offsetInCU: 0x1F031, offset: 0x1F031, size: 0x8, addend: 0x0, symName: __ZNSt3__110unique_ptrINS_11__hash_nodeINS_17__hash_value_typeINS_12basic_stringIcNS_11char_traitsIcEENS_9allocatorIcEEEEP7DAGNodeEEPvEENS_26__hash_map_node_destructorINS6_ISD_EEEEE7releaseB8ue170006Ev, symObjAddr: 0xC108, symBinAddr: 0x10000DB60, symSize: 0x44 }
  - { offsetInCU: 0x1F066, offset: 0x1F066, size: 0x8, addend: 0x0, symName: __ZNSt3__110unique_ptrINS_11__hash_nodeINS_17__hash_value_typeINS_12basic_stringIcNS_11char_traitsIcEENS_9allocatorIcEEEEP7DAGNodeEEPvEENS_26__hash_map_node_destructorINS6_ISD_EEEEED1B8ue170006Ev, symObjAddr: 0xC14C, symBinAddr: 0x10000DBA4, symSize: 0x2C }
  - { offsetInCU: 0x1F090, offset: 0x1F090, size: 0x8, addend: 0x0, symName: __ZNSt3__114pointer_traitsIPNS_4pairIKNS_12basic_stringIcNS_11char_traitsIcEENS_9allocatorIcEEEEP7DAGNodeEEE10pointer_toB8ue170006ERSB_, symObjAddr: 0xC178, symBinAddr: 0x10000DBD0, symSize: 0x14 }
  - { offsetInCU: 0x1F0B3, offset: 0x1F0B3, size: 0x8, addend: 0x0, symName: __ZNSt3__112__hash_tableINS_17__hash_value_typeINS_12basic_stringIcNS_11char_traitsIcEENS_9allocatorIcEEEEP7DAGNodeEENS_22__unordered_map_hasherIS7_SA_NS_4hashIS7_EENS_8equal_toIS7_EELb1EEENS_21__unordered_map_equalIS7_SA_SF_SD_Lb1EEENS5_ISA_EEE12__node_allocB8ue170006Ev, symObjAddr: 0xC18C, symBinAddr: 0x10000DBE4, symSize: 0x28 }
  - { offsetInCU: 0x1F0D9, offset: 0x1F0D9, size: 0x8, addend: 0x0, symName: __ZNSt3__116allocator_traitsINS_9allocatorINS_11__hash_nodeINS_17__hash_value_typeINS_12basic_stringIcNS_11char_traitsIcEENS1_IcEEEEP7DAGNodeEEPvEEEEE8allocateB8ue170006ERSE_m, symObjAddr: 0xC1B4, symBinAddr: 0x10000DC0C, symSize: 0x2C }
  - { offsetInCU: 0x1F10C, offset: 0x1F10C, size: 0x8, addend: 0x0, symName: __ZNSt3__126__hash_map_node_destructorINS_9allocatorINS_11__hash_nodeINS_17__hash_value_typeINS_12basic_stringIcNS_11char_traitsIcEENS1_IcEEEEP7DAGNodeEEPvEEEEEC1B8ue170006ERSE_, symObjAddr: 0xC1E0, symBinAddr: 0x10000DC38, symSize: 0x34 }
  - { offsetInCU: 0x1F14A, offset: 0x1F14A, size: 0x8, addend: 0x0, symName: __ZNSt3__110unique_ptrINS_11__hash_nodeINS_17__hash_value_typeINS_12basic_stringIcNS_11char_traitsIcEENS_9allocatorIcEEEEP7DAGNodeEEPvEENS_26__hash_map_node_destructorINS6_ISD_EEEEEC1B8ue170006ILb1EvEEPSD_NS_16__dependent_typeINS_27__unique_ptr_deleter_sfinaeISG_EEXT_EE20__good_rval_ref_typeE, symObjAddr: 0xC214, symBinAddr: 0x10000DC6C, symSize: 0x3C }
  - { offsetInCU: 0x1F1A0, offset: 0x1F1A0, size: 0x8, addend: 0x0, symName: __ZNSt3__116allocator_traitsINS_9allocatorINS_11__hash_nodeINS_17__hash_value_typeINS_12basic_stringIcNS_11char_traitsIcEENS1_IcEEEEP7DAGNodeEEPvEEEEE9constructB8ue170006IKS8_JRSH_EvEEvRSE_PT_DpOT0_, symObjAddr: 0xC250, symBinAddr: 0x10000DCA8, symSize: 0x34 }
  - { offsetInCU: 0x1F1F7, offset: 0x1F1F7, size: 0x8, addend: 0x0, symName: __ZNKSt3__110unique_ptrINS_11__hash_nodeINS_17__hash_value_typeINS_12basic_stringIcNS_11char_traitsIcEENS_9allocatorIcEEEEP7DAGNodeEEPvEENS_26__hash_map_node_destructorINS6_ISD_EEEEEptB8ue170006Ev, symObjAddr: 0xC284, symBinAddr: 0x10000DCDC, symSize: 0x28 }
  - { offsetInCU: 0x1F21D, offset: 0x1F21D, size: 0x8, addend: 0x0, symName: __ZNSt3__110unique_ptrINS_11__hash_nodeINS_17__hash_value_typeINS_12basic_stringIcNS_11char_traitsIcEENS_9allocatorIcEEEEP7DAGNodeEEPvEENS_26__hash_map_node_destructorINS6_ISD_EEEEE11get_deleterB8ue170006Ev, symObjAddr: 0xC2AC, symBinAddr: 0x10000DD04, symSize: 0x24 }
  - { offsetInCU: 0x1F243, offset: 0x1F243, size: 0x8, addend: 0x0, symName: __ZNSt3__116allocator_traitsINS_9allocatorINS_11__hash_nodeINS_17__hash_value_typeINS_12basic_stringIcNS_11char_traitsIcEENS1_IcEEEEP7DAGNodeEEPvEEEEE9constructB8ue170006ISA_JEvEEvRSE_PT_DpOT0_, symObjAddr: 0xC2D0, symBinAddr: 0x10000DD28, symSize: 0x2C }
  - { offsetInCU: 0x1F285, offset: 0x1F285, size: 0x8, addend: 0x0, symName: __ZNSt3__117__compressed_pairINS_16__hash_node_baseIPNS_11__hash_nodeINS_17__hash_value_typeINS_12basic_stringIcNS_11char_traitsIcEENS_9allocatorIcEEEEP7DAGNodeEEPvEEEENS7_ISE_EEE6secondB8ue170006Ev, symObjAddr: 0xC2FC, symBinAddr: 0x10000DD54, symSize: 0x24 }
  - { offsetInCU: 0x1F2AB, offset: 0x1F2AB, size: 0x8, addend: 0x0, symName: __ZNSt3__122__compressed_pair_elemINS_9allocatorINS_11__hash_nodeINS_17__hash_value_typeINS_12basic_stringIcNS_11char_traitsIcEENS1_IcEEEEP7DAGNodeEEPvEEEELi1ELb1EE5__getB8ue170006Ev, symObjAddr: 0xC320, symBinAddr: 0x10000DD78, symSize: 0x14 }
  - { offsetInCU: 0x1F2D1, offset: 0x1F2D1, size: 0x8, addend: 0x0, symName: __ZNSt3__19allocatorINS_11__hash_nodeINS_17__hash_value_typeINS_12basic_stringIcNS_11char_traitsIcEENS0_IcEEEEP7DAGNodeEEPvEEE8allocateB8ue170006Em, symObjAddr: 0xC334, symBinAddr: 0x10000DD8C, symSize: 0x8C }
  - { offsetInCU: 0x1F30F, offset: 0x1F30F, size: 0x8, addend: 0x0, symName: __ZNSt3__116allocator_traitsINS_9allocatorINS_11__hash_nodeINS_17__hash_value_typeINS_12basic_stringIcNS_11char_traitsIcEENS1_IcEEEEP7DAGNodeEEPvEEEEE8max_sizeB8ue170006ISE_vEEmRKSE_, symObjAddr: 0xC3C0, symBinAddr: 0x10000DE18, symSize: 0x24 }
  - { offsetInCU: 0x1F33D, offset: 0x1F33D, size: 0x8, addend: 0x0, symName: __ZNKSt3__19allocatorINS_11__hash_nodeINS_17__hash_value_typeINS_12basic_stringIcNS_11char_traitsIcEENS0_IcEEEEP7DAGNodeEEPvEEE8max_sizeB8ue170006Ev, symObjAddr: 0xC3E4, symBinAddr: 0x10000DE3C, symSize: 0x18 }
  - { offsetInCU: 0x1F363, offset: 0x1F363, size: 0x8, addend: 0x0, symName: __ZNSt3__126__hash_map_node_destructorINS_9allocatorINS_11__hash_nodeINS_17__hash_value_typeINS_12basic_stringIcNS_11char_traitsIcEENS1_IcEEEEP7DAGNodeEEPvEEEEEC2B8ue170006ERSE_, symObjAddr: 0xC3FC, symBinAddr: 0x10000DE54, symSize: 0x28 }
  - { offsetInCU: 0x1F39C, offset: 0x1F39C, size: 0x8, addend: 0x0, symName: __ZNSt3__110unique_ptrINS_11__hash_nodeINS_17__hash_value_typeINS_12basic_stringIcNS_11char_traitsIcEENS_9allocatorIcEEEEP7DAGNodeEEPvEENS_26__hash_map_node_destructorINS6_ISD_EEEEEC2B8ue170006ILb1EvEEPSD_NS_16__dependent_typeINS_27__unique_ptr_deleter_sfinaeISG_EEXT_EE20__good_rval_ref_typeE, symObjAddr: 0xC424, symBinAddr: 0x10000DE7C, symSize: 0x5C }
  - { offsetInCU: 0x1F3ED, offset: 0x1F3ED, size: 0x8, addend: 0x0, symName: __ZNSt3__117__compressed_pairIPNS_11__hash_nodeINS_17__hash_value_typeINS_12basic_stringIcNS_11char_traitsIcEENS_9allocatorIcEEEEP7DAGNodeEEPvEENS_26__hash_map_node_destructorINS6_ISD_EEEEEC1B8ue170006IRSE_SH_EEOT_OT0_, symObjAddr: 0xC480, symBinAddr: 0x10000DED8, symSize: 0x3C }
  - { offsetInCU: 0x1F445, offset: 0x1F445, size: 0x8, addend: 0x0, symName: __ZNSt3__117__compressed_pairIPNS_11__hash_nodeINS_17__hash_value_typeINS_12basic_stringIcNS_11char_traitsIcEENS_9allocatorIcEEEEP7DAGNodeEEPvEENS_26__hash_map_node_destructorINS6_ISD_EEEEEC2B8ue170006IRSE_SH_EEOT_OT0_, symObjAddr: 0xC4BC, symBinAddr: 0x10000DF14, symSize: 0x48 }
  - { offsetInCU: 0x1F49D, offset: 0x1F49D, size: 0x8, addend: 0x0, symName: __ZNSt3__122__compressed_pair_elemIPNS_11__hash_nodeINS_17__hash_value_typeINS_12basic_stringIcNS_11char_traitsIcEENS_9allocatorIcEEEEP7DAGNodeEEPvEELi0ELb0EEC2B8ue170006IRSE_vEEOT_, symObjAddr: 0xC504, symBinAddr: 0x10000DF5C, symSize: 0x24 }
  - { offsetInCU: 0x1F4DF, offset: 0x1F4DF, size: 0x8, addend: 0x0, symName: __ZNSt3__122__compressed_pair_elemINS_26__hash_map_node_destructorINS_9allocatorINS_11__hash_nodeINS_17__hash_value_typeINS_12basic_stringIcNS_11char_traitsIcEENS2_IcEEEEP7DAGNodeEEPvEEEEEELi1ELb0EEC2B8ue170006ISG_vEEOT_, symObjAddr: 0xC528, symBinAddr: 0x10000DF80, symSize: 0x24 }
  - { offsetInCU: 0x1F521, offset: 0x1F521, size: 0x8, addend: 0x0, symName: __ZNSt3__19allocatorINS_11__hash_nodeINS_17__hash_value_typeINS_12basic_stringIcNS_11char_traitsIcEENS0_IcEEEEP7DAGNodeEEPvEEE9constructB8ue170006IKS7_JRSF_EEEvPT_DpOT0_, symObjAddr: 0xC54C, symBinAddr: 0x10000DFA4, symSize: 0x30 }
  - { offsetInCU: 0x1F577, offset: 0x1F577, size: 0x8, addend: 0x0, symName: __ZNKSt3__117__compressed_pairIPNS_11__hash_nodeINS_17__hash_value_typeINS_12basic_stringIcNS_11char_traitsIcEENS_9allocatorIcEEEEP7DAGNodeEEPvEENS_26__hash_map_node_destructorINS6_ISD_EEEEE5firstB8ue170006Ev, symObjAddr: 0xC57C, symBinAddr: 0x10000DFD4, symSize: 0x24 }
  - { offsetInCU: 0x1F59D, offset: 0x1F59D, size: 0x8, addend: 0x0, symName: __ZNKSt3__122__compressed_pair_elemIPNS_11__hash_nodeINS_17__hash_value_typeINS_12basic_stringIcNS_11char_traitsIcEENS_9allocatorIcEEEEP7DAGNodeEEPvEELi0ELb0EE5__getB8ue170006Ev, symObjAddr: 0xC5A0, symBinAddr: 0x10000DFF8, symSize: 0x14 }
  - { offsetInCU: 0x1F5C3, offset: 0x1F5C3, size: 0x8, addend: 0x0, symName: __ZNSt3__117__compressed_pairIPNS_11__hash_nodeINS_17__hash_value_typeINS_12basic_stringIcNS_11char_traitsIcEENS_9allocatorIcEEEEP7DAGNodeEEPvEENS_26__hash_map_node_destructorINS6_ISD_EEEEE6secondB8ue170006Ev, symObjAddr: 0xC5B4, symBinAddr: 0x10000E00C, symSize: 0x28 }
  - { offsetInCU: 0x1F5E9, offset: 0x1F5E9, size: 0x8, addend: 0x0, symName: __ZNSt3__122__compressed_pair_elemINS_26__hash_map_node_destructorINS_9allocatorINS_11__hash_nodeINS_17__hash_value_typeINS_12basic_stringIcNS_11char_traitsIcEENS2_IcEEEEP7DAGNodeEEPvEEEEEELi1ELb0EE5__getB8ue170006Ev, symObjAddr: 0xC5DC, symBinAddr: 0x10000E034, symSize: 0x14 }
  - { offsetInCU: 0x1F60F, offset: 0x1F60F, size: 0x8, addend: 0x0, symName: __ZNSt3__19allocatorINS_11__hash_nodeINS_17__hash_value_typeINS_12basic_stringIcNS_11char_traitsIcEENS0_IcEEEEP7DAGNodeEEPvEEE9constructB8ue170006IS9_JEEEvPT_DpOT0_, symObjAddr: 0xC5F0, symBinAddr: 0x10000E048, symSize: 0x1C }
  - { offsetInCU: 0x1F651, offset: 0x1F651, size: 0x8, addend: 0x0, symName: __ZNKSt3__122__unordered_map_hasherINS_12basic_stringIcNS_11char_traitsIcEENS_9allocatorIcEEEENS_17__hash_value_typeIS6_P7DAGNodeEENS_4hashIS6_EENS_8equal_toIS6_EELb1EEclB8ue170006ERKSA_, symObjAddr: 0xC60C, symBinAddr: 0x10000E064, symSize: 0x3C }
  - { offsetInCU: 0x1F686, offset: 0x1F686, size: 0x8, addend: 0x0, symName: __ZNSt3__112__hash_tableINS_17__hash_value_typeINS_12basic_stringIcNS_11char_traitsIcEENS_9allocatorIcEEEEP7DAGNodeEENS_22__unordered_map_hasherIS7_SA_NS_4hashIS7_EENS_8equal_toIS7_EELb1EEENS_21__unordered_map_equalIS7_SA_SF_SD_Lb1EEENS5_ISA_EEE28__node_insert_unique_prepareB8ue170006EmRSA_, symObjAddr: 0xC648, symBinAddr: 0x10000E0A0, symSize: 0x290 }
  - { offsetInCU: 0x1F708, offset: 0x1F708, size: 0x8, addend: 0x0, symName: __ZNSt3__112__hash_tableINS_17__hash_value_typeINS_12basic_stringIcNS_11char_traitsIcEENS_9allocatorIcEEEEP7DAGNodeEENS_22__unordered_map_hasherIS7_SA_NS_4hashIS7_EENS_8equal_toIS7_EELb1EEENS_21__unordered_map_equalIS7_SA_SF_SD_Lb1EEENS5_ISA_EEE28__node_insert_unique_performB8ue170006EPNS_11__hash_nodeISA_PvEE, symObjAddr: 0xC8D8, symBinAddr: 0x10000E330, symSize: 0x154 }
  - { offsetInCU: 0x1F76C, offset: 0x1F76C, size: 0x8, addend: 0x0, symName: __ZNSt3__116__hash_node_baseIPNS_11__hash_nodeINS_17__hash_value_typeINS_12basic_stringIcNS_11char_traitsIcEENS_9allocatorIcEEEEP7DAGNodeEEPvEEE5__ptrB8ue170006Ev, symObjAddr: 0xCA2C, symBinAddr: 0x10000E484, symSize: 0x24 }
  - { offsetInCU: 0x1F792, offset: 0x1F792, size: 0x8, addend: 0x0, symName: __ZNSt3__14pairINS_15__hash_iteratorIPNS_11__hash_nodeINS_17__hash_value_typeINS_12basic_stringIcNS_11char_traitsIcEENS_9allocatorIcEEEEP7DAGNodeEEPvEEEEbEC1B8ue170006ERKSG_RKb, symObjAddr: 0xCA50, symBinAddr: 0x10000E4A8, symSize: 0x3C }
  - { offsetInCU: 0x1F7D8, offset: 0x1F7D8, size: 0x8, addend: 0x0, symName: __ZNKSt3__121__unordered_map_equalINS_12basic_stringIcNS_11char_traitsIcEENS_9allocatorIcEEEENS_17__hash_value_typeIS6_P7DAGNodeEENS_8equal_toIS6_EENS_4hashIS6_EELb1EEclB8ue170006ERKSA_SH_, symObjAddr: 0xCA8C, symBinAddr: 0x10000E4E4, symSize: 0x54 }
  - { offsetInCU: 0x1F81C, offset: 0x1F81C, size: 0x8, addend: 0x0, symName: __ZNSt3__112__hash_tableINS_17__hash_value_typeINS_12basic_stringIcNS_11char_traitsIcEENS_9allocatorIcEEEEP7DAGNodeEENS_22__unordered_map_hasherIS7_SA_NS_4hashIS7_EENS_8equal_toIS7_EELb1EEENS_21__unordered_map_equalIS7_SA_SF_SD_Lb1EEENS5_ISA_EEE4sizeB8ue170006Ev, symObjAddr: 0xCAE0, symBinAddr: 0x10000E538, symSize: 0x28 }
  - { offsetInCU: 0x1F842, offset: 0x1F842, size: 0x8, addend: 0x0, symName: __ZNSt3__112__hash_tableINS_17__hash_value_typeINS_12basic_stringIcNS_11char_traitsIcEENS_9allocatorIcEEEEP7DAGNodeEENS_22__unordered_map_hasherIS7_SA_NS_4hashIS7_EENS_8equal_toIS7_EELb1EEENS_21__unordered_map_equalIS7_SA_SF_SD_Lb1EEENS5_ISA_EEE15max_load_factorB8ue170006Ev, symObjAddr: 0xCB08, symBinAddr: 0x10000E560, symSize: 0x28 }
  - { offsetInCU: 0x1F868, offset: 0x1F868, size: 0x8, addend: 0x0, symName: __ZNSt3__112__hash_tableINS_17__hash_value_typeINS_12basic_stringIcNS_11char_traitsIcEENS_9allocatorIcEEEEP7DAGNodeEENS_22__unordered_map_hasherIS7_SA_NS_4hashIS7_EENS_8equal_toIS7_EELb1EEENS_21__unordered_map_equalIS7_SA_SF_SD_Lb1EEENS5_ISA_EEE15__rehash_uniqueB8ue170006Em, symObjAddr: 0xCB30, symBinAddr: 0x10000E588, symSize: 0x2C }
  - { offsetInCU: 0x1F89D, offset: 0x1F89D, size: 0x8, addend: 0x0, symName: __ZNSt3__117__compressed_pairImNS_22__unordered_map_hasherINS_12basic_stringIcNS_11char_traitsIcEENS_9allocatorIcEEEENS_17__hash_value_typeIS7_P7DAGNodeEENS_4hashIS7_EENS_8equal_toIS7_EELb1EEEE5firstB8ue170006Ev, symObjAddr: 0xCB5C, symBinAddr: 0x10000E5B4, symSize: 0x24 }
  - { offsetInCU: 0x1F8C3, offset: 0x1F8C3, size: 0x8, addend: 0x0, symName: __ZNSt3__117__compressed_pairIfNS_21__unordered_map_equalINS_12basic_stringIcNS_11char_traitsIcEENS_9allocatorIcEEEENS_17__hash_value_typeIS7_P7DAGNodeEENS_8equal_toIS7_EENS_4hashIS7_EELb1EEEE5firstB8ue170006Ev, symObjAddr: 0xCB80, symBinAddr: 0x10000E5D8, symSize: 0x24 }
  - { offsetInCU: 0x1F8E9, offset: 0x1F8E9, size: 0x8, addend: 0x0, symName: __ZNSt3__112__hash_tableINS_17__hash_value_typeINS_12basic_stringIcNS_11char_traitsIcEENS_9allocatorIcEEEEP7DAGNodeEENS_22__unordered_map_hasherIS7_SA_NS_4hashIS7_EENS_8equal_toIS7_EELb1EEENS_21__unordered_map_equalIS7_SA_SF_SD_Lb1EEENS5_ISA_EEE8__rehashILb1EEEvm, symObjAddr: 0xCBA4, symBinAddr: 0x10000E5FC, symSize: 0x1A8 }
  - { offsetInCU: 0x1F939, offset: 0x1F939, size: 0x8, addend: 0x0, symName: __ZNSt3__112__hash_tableINS_17__hash_value_typeINS_12basic_stringIcNS_11char_traitsIcEENS_9allocatorIcEEEEP7DAGNodeEENS_22__unordered_map_hasherIS7_SA_NS_4hashIS7_EENS_8equal_toIS7_EELb1EEENS_21__unordered_map_equalIS7_SA_SF_SD_Lb1EEENS5_ISA_EEE11__do_rehashILb1EEEvm, symObjAddr: 0xCD4C, symBinAddr: 0x10000E7A4, symSize: 0x288 }
  - { offsetInCU: 0x1FA20, offset: 0x1FA20, size: 0x8, addend: 0x0, symName: __ZNSt3__110unique_ptrIA_PNS_16__hash_node_baseIPNS_11__hash_nodeINS_17__hash_value_typeINS_12basic_stringIcNS_11char_traitsIcEENS_9allocatorIcEEEEP7DAGNodeEEPvEEEENS_25__bucket_list_deallocatorINS7_ISH_EEEEE11get_deleterB8ue170006Ev, symObjAddr: 0xCFD4, symBinAddr: 0x10000EA2C, symSize: 0x24 }
  - { offsetInCU: 0x1FA46, offset: 0x1FA46, size: 0x8, addend: 0x0, symName: __ZNSt3__110unique_ptrIA_PNS_16__hash_node_baseIPNS_11__hash_nodeINS_17__hash_value_typeINS_12basic_stringIcNS_11char_traitsIcEENS_9allocatorIcEEEEP7DAGNodeEEPvEEEENS_25__bucket_list_deallocatorINS7_ISH_EEEEE5resetB8ue170006IPSH_EENS_9enable_ifIXsr28_CheckArrayPointerConversionIT_EE5valueEvE4typeESQ_, symObjAddr: 0xCFF8, symBinAddr: 0x10000EA50, symSize: 0x78 }
  - { offsetInCU: 0x1FA93, offset: 0x1FA93, size: 0x8, addend: 0x0, symName: __ZNSt3__116allocator_traitsINS_9allocatorIPNS_16__hash_node_baseIPNS_11__hash_nodeINS_17__hash_value_typeINS_12basic_stringIcNS_11char_traitsIcEENS1_IcEEEEP7DAGNodeEEPvEEEEEEE8allocateB8ue170006ERSI_m, symObjAddr: 0xD070, symBinAddr: 0x10000EAC8, symSize: 0x2C }
  - { offsetInCU: 0x1FAC6, offset: 0x1FAC6, size: 0x8, addend: 0x0, symName: __ZNSt3__19allocatorIPNS_16__hash_node_baseIPNS_11__hash_nodeINS_17__hash_value_typeINS_12basic_stringIcNS_11char_traitsIcEENS0_IcEEEEP7DAGNodeEEPvEEEEE8allocateB8ue170006Em, symObjAddr: 0xD09C, symBinAddr: 0x10000EAF4, symSize: 0x84 }
  - { offsetInCU: 0x1FB04, offset: 0x1FB04, size: 0x8, addend: 0x0, symName: __ZNSt3__116allocator_traitsINS_9allocatorIPNS_16__hash_node_baseIPNS_11__hash_nodeINS_17__hash_value_typeINS_12basic_stringIcNS_11char_traitsIcEENS1_IcEEEEP7DAGNodeEEPvEEEEEEE8max_sizeB8ue170006ISI_vEEmRKSI_, symObjAddr: 0xD120, symBinAddr: 0x10000EB78, symSize: 0x24 }
  - { offsetInCU: 0x1FB32, offset: 0x1FB32, size: 0x8, addend: 0x0, symName: __ZNKSt3__19allocatorIPNS_16__hash_node_baseIPNS_11__hash_nodeINS_17__hash_value_typeINS_12basic_stringIcNS_11char_traitsIcEENS0_IcEEEEP7DAGNodeEEPvEEEEE8max_sizeB8ue170006Ev, symObjAddr: 0xD144, symBinAddr: 0x10000EB9C, symSize: 0x14 }
  - { offsetInCU: 0x1FB58, offset: 0x1FB58, size: 0x8, addend: 0x0, symName: __ZNSt3__14pairINS_15__hash_iteratorIPNS_11__hash_nodeINS_17__hash_value_typeINS_12basic_stringIcNS_11char_traitsIcEENS_9allocatorIcEEEEP7DAGNodeEEPvEEEEbEC2B8ue170006ERKSG_RKb, symObjAddr: 0xD158, symBinAddr: 0x10000EBB0, symSize: 0x38 }
  - { offsetInCU: 0x1FB9E, offset: 0x1FB9E, size: 0x8, addend: 0x0, symName: __ZNSt3__14pairINS_19__hash_map_iteratorINS_15__hash_iteratorIPNS_11__hash_nodeINS_17__hash_value_typeINS_12basic_stringIcNS_11char_traitsIcEENS_9allocatorIcEEEEP7DAGNodeEEPvEEEEEEbEC2B8ue170006ISH_bEERKNS0_IT_T0_EE, symObjAddr: 0xD190, symBinAddr: 0x10000EBE8, symSize: 0x50 }
  - { offsetInCU: 0x1FBE8, offset: 0x1FBE8, size: 0x8, addend: 0x0, symName: __ZNSt3__117__compressed_pairIPNS_11__hash_nodeINS_17__hash_value_typeINS_12basic_stringIcNS_11char_traitsIcEENS_9allocatorIcEEEEP7DAGNodeEEPvEENS_26__hash_map_node_destructorINS6_ISD_EEEEE5firstB8ue170006Ev, symObjAddr: 0xD1E0, symBinAddr: 0x10000EC38, symSize: 0x24 }
  - { offsetInCU: 0x1FC0E, offset: 0x1FC0E, size: 0x8, addend: 0x0, symName: __ZNSt3__122__compressed_pair_elemIPNS_11__hash_nodeINS_17__hash_value_typeINS_12basic_stringIcNS_11char_traitsIcEENS_9allocatorIcEEEEP7DAGNodeEEPvEELi0ELb0EE5__getB8ue170006Ev, symObjAddr: 0xD204, symBinAddr: 0x10000EC5C, symSize: 0x14 }
  - { offsetInCU: 0x1FC34, offset: 0x1FC34, size: 0x8, addend: 0x0, symName: __ZNSt3__110unique_ptrINS_11__hash_nodeINS_17__hash_value_typeINS_12basic_stringIcNS_11char_traitsIcEENS_9allocatorIcEEEEP7DAGNodeEEPvEENS_26__hash_map_node_destructorINS6_ISD_EEEEED2B8ue170006Ev, symObjAddr: 0xD218, symBinAddr: 0x10000EC70, symSize: 0x30 }
  - { offsetInCU: 0x1FC5E, offset: 0x1FC5E, size: 0x8, addend: 0x0, symName: __ZNSt3__110unique_ptrINS_11__hash_nodeINS_17__hash_value_typeINS_12basic_stringIcNS_11char_traitsIcEENS_9allocatorIcEEEEP7DAGNodeEEPvEENS_26__hash_map_node_destructorINS6_ISD_EEEEE5resetB8ue170006EPSD_, symObjAddr: 0xD248, symBinAddr: 0x10000ECA0, symSize: 0x78 }
  - { offsetInCU: 0x1FCA2, offset: 0x1FCA2, size: 0x8, addend: 0x0, symName: __ZNSt3__126__hash_map_node_destructorINS_9allocatorINS_11__hash_nodeINS_17__hash_value_typeINS_12basic_stringIcNS_11char_traitsIcEENS1_IcEEEEP7DAGNodeEEPvEEEEEclB8ue170006EPSD_, symObjAddr: 0xD2C0, symBinAddr: 0x10000ED18, symSize: 0xE4 }
  - { offsetInCU: 0x1FCD7, offset: 0x1FCD7, size: 0x8, addend: 0x0, symName: __ZNSt3__116allocator_traitsINS_9allocatorINS_11__hash_nodeINS_17__hash_value_typeINS_12basic_stringIcNS_11char_traitsIcEENS1_IcEEEEP7DAGNodeEEPvEEEEE7destroyB8ue170006ISA_vvEEvRSE_PT_, symObjAddr: 0xD3A4, symBinAddr: 0x10000EDFC, symSize: 0x14 }
  - { offsetInCU: 0x1FD11, offset: 0x1FD11, size: 0x8, addend: 0x0, symName: __ZNSt3__116allocator_traitsINS_9allocatorINS_11__hash_nodeINS_17__hash_value_typeINS_12basic_stringIcNS_11char_traitsIcEENS1_IcEEEEP7DAGNodeEEPvEEEEE7destroyB8ue170006IKS8_vvEEvRSE_PT_, symObjAddr: 0xD3B8, symBinAddr: 0x10000EE10, symSize: 0x28 }
  - { offsetInCU: 0x1FD4B, offset: 0x1FD4B, size: 0x8, addend: 0x0, symName: __ZNSt3__116allocator_traitsINS_9allocatorINS_11__hash_nodeINS_17__hash_value_typeINS_12basic_stringIcNS_11char_traitsIcEENS1_IcEEEEP7DAGNodeEEPvEEEEE10deallocateB8ue170006ERSE_PSD_m, symObjAddr: 0xD3E0, symBinAddr: 0x10000EE38, symSize: 0x34 }
  - { offsetInCU: 0x1FD8D, offset: 0x1FD8D, size: 0x8, addend: 0x0, symName: __ZNSt3__19allocatorINS_11__hash_nodeINS_17__hash_value_typeINS_12basic_stringIcNS_11char_traitsIcEENS0_IcEEEEP7DAGNodeEEPvEEE10deallocateB8ue170006EPSC_m, symObjAddr: 0xD414, symBinAddr: 0x10000EE6C, symSize: 0x74 }
  - { offsetInCU: 0x1FDCF, offset: 0x1FDCF, size: 0x8, addend: 0x0, symName: __ZN3DAGD2Ev, symObjAddr: 0xD488, symBinAddr: 0x10000EEE0, symSize: 0x2C }
  - { offsetInCU: 0x1FDFB, offset: 0x1FDFB, size: 0x8, addend: 0x0, symName: __ZNSt3__113unordered_mapINS_12basic_stringIcNS_11char_traitsIcEENS_9allocatorIcEEEEP7DAGNodeNS_4hashIS6_EENS_8equal_toIS6_EENS4_INS_4pairIKS6_S8_EEEEED1B8ue170006Ev, symObjAddr: 0xD4B4, symBinAddr: 0x10000EF0C, symSize: 0x2C }
  - { offsetInCU: 0x1FE25, offset: 0x1FE25, size: 0x8, addend: 0x0, symName: __ZNSt3__113unordered_mapINS_12basic_stringIcNS_11char_traitsIcEENS_9allocatorIcEEEEP7DAGNodeNS_4hashIS6_EENS_8equal_toIS6_EENS4_INS_4pairIKS6_S8_EEEEED2B8ue170006Ev, symObjAddr: 0xD4E0, symBinAddr: 0x10000EF38, symSize: 0x2C }
  - { offsetInCU: 0x1FE4F, offset: 0x1FE4F, size: 0x8, addend: 0x0, symName: __ZNSt3__112__hash_tableINS_17__hash_value_typeINS_12basic_stringIcNS_11char_traitsIcEENS_9allocatorIcEEEEP7DAGNodeEENS_22__unordered_map_hasherIS7_SA_NS_4hashIS7_EENS_8equal_toIS7_EELb1EEENS_21__unordered_map_equalIS7_SA_SF_SD_Lb1EEENS5_ISA_EEED1Ev, symObjAddr: 0xD50C, symBinAddr: 0x10000EF64, symSize: 0x2C }
  - { offsetInCU: 0x1FE7B, offset: 0x1FE7B, size: 0x8, addend: 0x0, symName: __ZNSt3__112__hash_tableINS_17__hash_value_typeINS_12basic_stringIcNS_11char_traitsIcEENS_9allocatorIcEEEEP7DAGNodeEENS_22__unordered_map_hasherIS7_SA_NS_4hashIS7_EENS_8equal_toIS7_EELb1EEENS_21__unordered_map_equalIS7_SA_SF_SD_Lb1EEENS5_ISA_EEED2Ev, symObjAddr: 0xD538, symBinAddr: 0x10000EF90, symSize: 0x48 }
  - { offsetInCU: 0x1FEA7, offset: 0x1FEA7, size: 0x8, addend: 0x0, symName: __ZNSt3__112__hash_tableINS_17__hash_value_typeINS_12basic_stringIcNS_11char_traitsIcEENS_9allocatorIcEEEEP7DAGNodeEENS_22__unordered_map_hasherIS7_SA_NS_4hashIS7_EENS_8equal_toIS7_EELb1EEENS_21__unordered_map_equalIS7_SA_SF_SD_Lb1EEENS5_ISA_EEE17__deallocate_nodeEPNS_16__hash_node_baseIPNS_11__hash_nodeISA_PvEEEE, symObjAddr: 0xD580, symBinAddr: 0x10000EFD8, symSize: 0xBC }
  - { offsetInCU: 0x1FF11, offset: 0x1FF11, size: 0x8, addend: 0x0, symName: __ZNSt3__116allocator_traitsINS_9allocatorINS_11__hash_nodeINS_17__hash_value_typeINS_12basic_stringIcNS_11char_traitsIcEENS1_IcEEEEP7DAGNodeEEPvEEEEE7destroyB8ue170006INS_4pairIKS8_SA_EEvvEEvRSE_PT_, symObjAddr: 0xD63C, symBinAddr: 0x10000F094, symSize: 0x28 }
  - { offsetInCU: 0x1FF4B, offset: 0x1FF4B, size: 0x8, addend: 0x0, symName: __ZNSt3__122__hash_key_value_typesINS_17__hash_value_typeINS_12basic_stringIcNS_11char_traitsIcEENS_9allocatorIcEEEEP7DAGNodeEEE9__get_ptrB8ue170006ERSA_, symObjAddr: 0xD664, symBinAddr: 0x10000F0BC, symSize: 0x24 }
  - { offsetInCU: 0x1FF6E, offset: 0x1FF6E, size: 0x8, addend: 0x0, symName: __ZNSt3__14pairIKNS_12basic_stringIcNS_11char_traitsIcEENS_9allocatorIcEEEEP7DAGNodeED1Ev, symObjAddr: 0xD688, symBinAddr: 0x10000F0E0, symSize: 0x2C }
  - { offsetInCU: 0x1FF9A, offset: 0x1FF9A, size: 0x8, addend: 0x0, symName: __ZNSt3__14pairIKNS_12basic_stringIcNS_11char_traitsIcEENS_9allocatorIcEEEEP7DAGNodeED2Ev, symObjAddr: 0xD6B4, symBinAddr: 0x10000F10C, symSize: 0x2C }
  - { offsetInCU: 0x1FFC6, offset: 0x1FFC6, size: 0x8, addend: 0x0, symName: __ZNSt3__16vectorIP7DAGNodeNS_9allocatorIS2_EEED2B8ue170006Ev, symObjAddr: 0xD6E0, symBinAddr: 0x10000F138, symSize: 0x3C }
  - { offsetInCU: 0x1FFF0, offset: 0x1FFF0, size: 0x8, addend: 0x0, symName: __ZNSt3__16vectorIP7DAGNodeNS_9allocatorIS2_EEE16__destroy_vectorC1B8ue170006ERS5_, symObjAddr: 0xD71C, symBinAddr: 0x10000F174, symSize: 0x34 }
  - { offsetInCU: 0x20029, offset: 0x20029, size: 0x8, addend: 0x0, symName: __ZNSt3__16vectorIP7DAGNodeNS_9allocatorIS2_EEE16__destroy_vectorclB8ue170006Ev, symObjAddr: 0xD750, symBinAddr: 0x10000F1A8, symSize: 0x90 }
  - { offsetInCU: 0x2004F, offset: 0x2004F, size: 0x8, addend: 0x0, symName: __ZNSt3__16vectorIP7DAGNodeNS_9allocatorIS2_EEE16__destroy_vectorC2B8ue170006ERS5_, symObjAddr: 0xD7E0, symBinAddr: 0x10000F238, symSize: 0x20 }
  - { offsetInCU: 0x20088, offset: 0x20088, size: 0x8, addend: 0x0, symName: __ZNSt3__16vectorIP7DAGNodeNS_9allocatorIS2_EEE7__clearB8ue170006Ev, symObjAddr: 0xD800, symBinAddr: 0x10000F258, symSize: 0x28 }
  - { offsetInCU: 0x200AE, offset: 0x200AE, size: 0x8, addend: 0x0, symName: __ZNSt3__16vectorIP7DAGNodeNS_9allocatorIS2_EEE22__base_destruct_at_endB8ue170006EPS2_, symObjAddr: 0xD828, symBinAddr: 0x10000F280, symSize: 0xA0 }
  - { offsetInCU: 0x200F2, offset: 0x200F2, size: 0x8, addend: 0x0, symName: __ZNSt3__16vectorIP7DAGNodeNS_9allocatorIS2_EEE11__make_iterB8ue170006EPS2_, symObjAddr: 0xD8C8, symBinAddr: 0x10000F320, symSize: 0x30 }
  - { offsetInCU: 0x20127, offset: 0x20127, size: 0x8, addend: 0x0, symName: __ZNSt3__111__wrap_iterIPP7DAGNodeEC1B8ue170006ES3_, symObjAddr: 0xD8F8, symBinAddr: 0x10000F350, symSize: 0x34 }
  - { offsetInCU: 0x2015F, offset: 0x2015F, size: 0x8, addend: 0x0, symName: __ZNSt3__111__wrap_iterIPP7DAGNodeEC2B8ue170006ES3_, symObjAddr: 0xD92C, symBinAddr: 0x10000F384, symSize: 0x20 }
  - { offsetInCU: 0x20197, offset: 0x20197, size: 0x8, addend: 0x0, symName: __ZNSt3__113unordered_mapINS_12basic_stringIcNS_11char_traitsIcEENS_9allocatorIcEEEES6_NS_4hashIS6_EENS_8equal_toIS6_EENS4_INS_4pairIKS6_S6_EEEEEC2B8ue170006Ev, symObjAddr: 0xD994, symBinAddr: 0x10000F3EC, symSize: 0x2C }
  - { offsetInCU: 0x201C1, offset: 0x201C1, size: 0x8, addend: 0x0, symName: __ZNSt3__112__hash_tableINS_17__hash_value_typeINS_12basic_stringIcNS_11char_traitsIcEENS_9allocatorIcEEEES7_EENS_22__unordered_map_hasherIS7_S8_NS_4hashIS7_EENS_8equal_toIS7_EELb1EEENS_21__unordered_map_equalIS7_S8_SD_SB_Lb1EEENS5_IS8_EEEC1Ev, symObjAddr: 0xD9C0, symBinAddr: 0x10000F418, symSize: 0x2C }
  - { offsetInCU: 0x201ED, offset: 0x201ED, size: 0x8, addend: 0x0, symName: __ZNSt3__112__hash_tableINS_17__hash_value_typeINS_12basic_stringIcNS_11char_traitsIcEENS_9allocatorIcEEEES7_EENS_22__unordered_map_hasherIS7_S8_NS_4hashIS7_EENS_8equal_toIS7_EELb1EEENS_21__unordered_map_equalIS7_S8_SD_SB_Lb1EEENS5_IS8_EEEC2Ev, symObjAddr: 0xD9EC, symBinAddr: 0x10000F444, symSize: 0xA4 }
  - { offsetInCU: 0x20219, offset: 0x20219, size: 0x8, addend: 0x0, symName: __ZNSt3__110unique_ptrIA_PNS_16__hash_node_baseIPNS_11__hash_nodeINS_17__hash_value_typeINS_12basic_stringIcNS_11char_traitsIcEENS_9allocatorIcEEEES9_EEPvEEEENS_25__bucket_list_deallocatorINS7_ISF_EEEEEC1B8ue170006ILb1EvEEv, symObjAddr: 0xDA90, symBinAddr: 0x10000F4E8, symSize: 0x2C }
  - { offsetInCU: 0x2024E, offset: 0x2024E, size: 0x8, addend: 0x0, symName: __ZNSt3__117__compressed_pairINS_16__hash_node_baseIPNS_11__hash_nodeINS_17__hash_value_typeINS_12basic_stringIcNS_11char_traitsIcEENS_9allocatorIcEEEES9_EEPvEEEENS7_ISC_EEEC1B8ue170006ILb1EvEEv, symObjAddr: 0xDABC, symBinAddr: 0x10000F514, symSize: 0x2C }
  - { offsetInCU: 0x20283, offset: 0x20283, size: 0x8, addend: 0x0, symName: __ZNSt3__117__compressed_pairImNS_22__unordered_map_hasherINS_12basic_stringIcNS_11char_traitsIcEENS_9allocatorIcEEEENS_17__hash_value_typeIS7_S7_EENS_4hashIS7_EENS_8equal_toIS7_EELb1EEEEC1B8ue170006IiNS_18__default_init_tagEEEOT_OT0_, symObjAddr: 0xDAE8, symBinAddr: 0x10000F540, symSize: 0x3C }
  - { offsetInCU: 0x202DB, offset: 0x202DB, size: 0x8, addend: 0x0, symName: __ZNSt3__117__compressed_pairIfNS_21__unordered_map_equalINS_12basic_stringIcNS_11char_traitsIcEENS_9allocatorIcEEEENS_17__hash_value_typeIS7_S7_EENS_8equal_toIS7_EENS_4hashIS7_EELb1EEEEC1B8ue170006IfNS_18__default_init_tagEEEOT_OT0_, symObjAddr: 0xDB24, symBinAddr: 0x10000F57C, symSize: 0x3C }
  - { offsetInCU: 0x20333, offset: 0x20333, size: 0x8, addend: 0x0, symName: __ZNSt3__110unique_ptrIA_PNS_16__hash_node_baseIPNS_11__hash_nodeINS_17__hash_value_typeINS_12basic_stringIcNS_11char_traitsIcEENS_9allocatorIcEEEES9_EEPvEEEENS_25__bucket_list_deallocatorINS7_ISF_EEEEED1B8ue170006Ev, symObjAddr: 0xDB60, symBinAddr: 0x10000F5B8, symSize: 0x2C }
  - { offsetInCU: 0x2035D, offset: 0x2035D, size: 0x8, addend: 0x0, symName: __ZNSt3__110unique_ptrIA_PNS_16__hash_node_baseIPNS_11__hash_nodeINS_17__hash_value_typeINS_12basic_stringIcNS_11char_traitsIcEENS_9allocatorIcEEEES9_EEPvEEEENS_25__bucket_list_deallocatorINS7_ISF_EEEEEC2B8ue170006ILb1EvEEv, symObjAddr: 0xDB8C, symBinAddr: 0x10000F5E4, symSize: 0x50 }
  - { offsetInCU: 0x20392, offset: 0x20392, size: 0x8, addend: 0x0, symName: __ZNSt3__117__compressed_pairIPPNS_16__hash_node_baseIPNS_11__hash_nodeINS_17__hash_value_typeINS_12basic_stringIcNS_11char_traitsIcEENS_9allocatorIcEEEES9_EEPvEEEENS_25__bucket_list_deallocatorINS7_ISF_EEEEEC1B8ue170006INS_16__value_init_tagESM_EEOT_OT0_, symObjAddr: 0xDBDC, symBinAddr: 0x10000F634, symSize: 0x3C }
  - { offsetInCU: 0x203EA, offset: 0x203EA, size: 0x8, addend: 0x0, symName: __ZNSt3__117__compressed_pairIPPNS_16__hash_node_baseIPNS_11__hash_nodeINS_17__hash_value_typeINS_12basic_stringIcNS_11char_traitsIcEENS_9allocatorIcEEEES9_EEPvEEEENS_25__bucket_list_deallocatorINS7_ISF_EEEEEC2B8ue170006INS_16__value_init_tagESM_EEOT_OT0_, symObjAddr: 0xDC18, symBinAddr: 0x10000F670, symSize: 0x40 }
  - { offsetInCU: 0x20442, offset: 0x20442, size: 0x8, addend: 0x0, symName: __ZNSt3__122__compressed_pair_elemIPPNS_16__hash_node_baseIPNS_11__hash_nodeINS_17__hash_value_typeINS_12basic_stringIcNS_11char_traitsIcEENS_9allocatorIcEEEES9_EEPvEEEELi0ELb0EEC2B8ue170006ENS_16__value_init_tagE, symObjAddr: 0xDC58, symBinAddr: 0x10000F6B0, symSize: 0x18 }
  - { offsetInCU: 0x20476, offset: 0x20476, size: 0x8, addend: 0x0, symName: __ZNSt3__122__compressed_pair_elemINS_25__bucket_list_deallocatorINS_9allocatorIPNS_16__hash_node_baseIPNS_11__hash_nodeINS_17__hash_value_typeINS_12basic_stringIcNS_11char_traitsIcEENS2_IcEEEESA_EEPvEEEEEEEELi1ELb0EEC2B8ue170006ENS_16__value_init_tagE, symObjAddr: 0xDC70, symBinAddr: 0x10000F6C8, symSize: 0x2C }
  - { offsetInCU: 0x204AA, offset: 0x204AA, size: 0x8, addend: 0x0, symName: __ZNSt3__125__bucket_list_deallocatorINS_9allocatorIPNS_16__hash_node_baseIPNS_11__hash_nodeINS_17__hash_value_typeINS_12basic_stringIcNS_11char_traitsIcEENS1_IcEEEES9_EEPvEEEEEEEC1B8ue170006Ev, symObjAddr: 0xDC9C, symBinAddr: 0x10000F6F4, symSize: 0x2C }
  - { offsetInCU: 0x204D4, offset: 0x204D4, size: 0x8, addend: 0x0, symName: __ZNSt3__125__bucket_list_deallocatorINS_9allocatorIPNS_16__hash_node_baseIPNS_11__hash_nodeINS_17__hash_value_typeINS_12basic_stringIcNS_11char_traitsIcEENS1_IcEEEES9_EEPvEEEEEEEC2B8ue170006Ev, symObjAddr: 0xDCC8, symBinAddr: 0x10000F720, symSize: 0x38 }
  - { offsetInCU: 0x204FE, offset: 0x204FE, size: 0x8, addend: 0x0, symName: __ZNSt3__117__compressed_pairImNS_9allocatorIPNS_16__hash_node_baseIPNS_11__hash_nodeINS_17__hash_value_typeINS_12basic_stringIcNS_11char_traitsIcEENS1_IcEEEES9_EEPvEEEEEEEC1B8ue170006IiNS_18__default_init_tagEEEOT_OT0_, symObjAddr: 0xDD00, symBinAddr: 0x10000F758, symSize: 0x3C }
  - { offsetInCU: 0x20556, offset: 0x20556, size: 0x8, addend: 0x0, symName: __ZNSt3__117__compressed_pairImNS_9allocatorIPNS_16__hash_node_baseIPNS_11__hash_nodeINS_17__hash_value_typeINS_12basic_stringIcNS_11char_traitsIcEENS1_IcEEEES9_EEPvEEEEEEEC2B8ue170006IiNS_18__default_init_tagEEEOT_OT0_, symObjAddr: 0xDD3C, symBinAddr: 0x10000F794, symSize: 0x40 }
  - { offsetInCU: 0x205AE, offset: 0x205AE, size: 0x8, addend: 0x0, symName: __ZNSt3__122__compressed_pair_elemINS_9allocatorIPNS_16__hash_node_baseIPNS_11__hash_nodeINS_17__hash_value_typeINS_12basic_stringIcNS_11char_traitsIcEENS1_IcEEEES9_EEPvEEEEEELi1ELb1EEC2B8ue170006ENS_18__default_init_tagE, symObjAddr: 0xDD7C, symBinAddr: 0x10000F7D4, symSize: 0x2C }
  - { offsetInCU: 0x205E2, offset: 0x205E2, size: 0x8, addend: 0x0, symName: __ZNSt3__19allocatorIPNS_16__hash_node_baseIPNS_11__hash_nodeINS_17__hash_value_typeINS_12basic_stringIcNS_11char_traitsIcEENS0_IcEEEES8_EEPvEEEEEC2B8ue170006Ev, symObjAddr: 0xDDA8, symBinAddr: 0x10000F800, symSize: 0x2C }
  - { offsetInCU: 0x2060C, offset: 0x2060C, size: 0x8, addend: 0x0, symName: __ZNSt3__116__non_trivial_ifILb1ENS_9allocatorIPNS_16__hash_node_baseIPNS_11__hash_nodeINS_17__hash_value_typeINS_12basic_stringIcNS_11char_traitsIcEENS1_IcEEEES9_EEPvEEEEEEEC2B8ue170006Ev, symObjAddr: 0xDDD4, symBinAddr: 0x10000F82C, symSize: 0x14 }
  - { offsetInCU: 0x20636, offset: 0x20636, size: 0x8, addend: 0x0, symName: __ZNSt3__117__compressed_pairINS_16__hash_node_baseIPNS_11__hash_nodeINS_17__hash_value_typeINS_12basic_stringIcNS_11char_traitsIcEENS_9allocatorIcEEEES9_EEPvEEEENS7_ISC_EEEC2B8ue170006ILb1EvEEv, symObjAddr: 0xDDE8, symBinAddr: 0x10000F840, symSize: 0x34 }
  - { offsetInCU: 0x2066B, offset: 0x2066B, size: 0x8, addend: 0x0, symName: __ZNSt3__122__compressed_pair_elemINS_16__hash_node_baseIPNS_11__hash_nodeINS_17__hash_value_typeINS_12basic_stringIcNS_11char_traitsIcEENS_9allocatorIcEEEES9_EEPvEEEELi0ELb0EEC2B8ue170006ENS_16__value_init_tagE, symObjAddr: 0xDE1C, symBinAddr: 0x10000F874, symSize: 0x2C }
  - { offsetInCU: 0x2069F, offset: 0x2069F, size: 0x8, addend: 0x0, symName: __ZNSt3__122__compressed_pair_elemINS_9allocatorINS_11__hash_nodeINS_17__hash_value_typeINS_12basic_stringIcNS_11char_traitsIcEENS1_IcEEEES8_EEPvEEEELi1ELb1EEC2B8ue170006ENS_16__value_init_tagE, symObjAddr: 0xDE48, symBinAddr: 0x10000F8A0, symSize: 0x2C }
  - { offsetInCU: 0x206D3, offset: 0x206D3, size: 0x8, addend: 0x0, symName: __ZNSt3__116__hash_node_baseIPNS_11__hash_nodeINS_17__hash_value_typeINS_12basic_stringIcNS_11char_traitsIcEENS_9allocatorIcEEEES8_EEPvEEEC1B8ue170006Ev, symObjAddr: 0xDE74, symBinAddr: 0x10000F8CC, symSize: 0x2C }
  - { offsetInCU: 0x206FD, offset: 0x206FD, size: 0x8, addend: 0x0, symName: __ZNSt3__116__hash_node_baseIPNS_11__hash_nodeINS_17__hash_value_typeINS_12basic_stringIcNS_11char_traitsIcEENS_9allocatorIcEEEES8_EEPvEEEC2B8ue170006Ev, symObjAddr: 0xDEA0, symBinAddr: 0x10000F8F8, symSize: 0x18 }
  - { offsetInCU: 0x20727, offset: 0x20727, size: 0x8, addend: 0x0, symName: __ZNSt3__19allocatorINS_11__hash_nodeINS_17__hash_value_typeINS_12basic_stringIcNS_11char_traitsIcEENS0_IcEEEES7_EEPvEEEC2B8ue170006Ev, symObjAddr: 0xDEB8, symBinAddr: 0x10000F910, symSize: 0x2C }
  - { offsetInCU: 0x20751, offset: 0x20751, size: 0x8, addend: 0x0, symName: __ZNSt3__116__non_trivial_ifILb1ENS_9allocatorINS_11__hash_nodeINS_17__hash_value_typeINS_12basic_stringIcNS_11char_traitsIcEENS1_IcEEEES8_EEPvEEEEEC2B8ue170006Ev, symObjAddr: 0xDEE4, symBinAddr: 0x10000F93C, symSize: 0x14 }
  - { offsetInCU: 0x2077B, offset: 0x2077B, size: 0x8, addend: 0x0, symName: __ZNSt3__117__compressed_pairImNS_22__unordered_map_hasherINS_12basic_stringIcNS_11char_traitsIcEENS_9allocatorIcEEEENS_17__hash_value_typeIS7_S7_EENS_4hashIS7_EENS_8equal_toIS7_EELb1EEEEC2B8ue170006IiNS_18__default_init_tagEEEOT_OT0_, symObjAddr: 0xDEF8, symBinAddr: 0x10000F950, symSize: 0x40 }
  - { offsetInCU: 0x207D3, offset: 0x207D3, size: 0x8, addend: 0x0, symName: __ZNSt3__122__compressed_pair_elemINS_22__unordered_map_hasherINS_12basic_stringIcNS_11char_traitsIcEENS_9allocatorIcEEEENS_17__hash_value_typeIS7_S7_EENS_4hashIS7_EENS_8equal_toIS7_EELb1EEELi1ELb1EEC2B8ue170006ENS_18__default_init_tagE, symObjAddr: 0xDF38, symBinAddr: 0x10000F990, symSize: 0x2C }
  - { offsetInCU: 0x20807, offset: 0x20807, size: 0x8, addend: 0x0, symName: __ZNSt3__122__unordered_map_hasherINS_12basic_stringIcNS_11char_traitsIcEENS_9allocatorIcEEEENS_17__hash_value_typeIS6_S6_EENS_4hashIS6_EENS_8equal_toIS6_EELb1EEC2B8ue170006Ev, symObjAddr: 0xDF64, symBinAddr: 0x10000F9BC, symSize: 0x14 }
  - { offsetInCU: 0x20831, offset: 0x20831, size: 0x8, addend: 0x0, symName: __ZNSt3__117__compressed_pairIfNS_21__unordered_map_equalINS_12basic_stringIcNS_11char_traitsIcEENS_9allocatorIcEEEENS_17__hash_value_typeIS7_S7_EENS_8equal_toIS7_EENS_4hashIS7_EELb1EEEEC2B8ue170006IfNS_18__default_init_tagEEEOT_OT0_, symObjAddr: 0xDF78, symBinAddr: 0x10000F9D0, symSize: 0x40 }
  - { offsetInCU: 0x20889, offset: 0x20889, size: 0x8, addend: 0x0, symName: __ZNSt3__122__compressed_pair_elemINS_21__unordered_map_equalINS_12basic_stringIcNS_11char_traitsIcEENS_9allocatorIcEEEENS_17__hash_value_typeIS7_S7_EENS_8equal_toIS7_EENS_4hashIS7_EELb1EEELi1ELb1EEC2B8ue170006ENS_18__default_init_tagE, symObjAddr: 0xDFB8, symBinAddr: 0x10000FA10, symSize: 0x2C }
  - { offsetInCU: 0x208BD, offset: 0x208BD, size: 0x8, addend: 0x0, symName: __ZNSt3__121__unordered_map_equalINS_12basic_stringIcNS_11char_traitsIcEENS_9allocatorIcEEEENS_17__hash_value_typeIS6_S6_EENS_8equal_toIS6_EENS_4hashIS6_EELb1EEC2B8ue170006Ev, symObjAddr: 0xDFE4, symBinAddr: 0x10000FA3C, symSize: 0x14 }
  - { offsetInCU: 0x208E7, offset: 0x208E7, size: 0x8, addend: 0x0, symName: __ZNSt3__110unique_ptrIA_PNS_16__hash_node_baseIPNS_11__hash_nodeINS_17__hash_value_typeINS_12basic_stringIcNS_11char_traitsIcEENS_9allocatorIcEEEES9_EEPvEEEENS_25__bucket_list_deallocatorINS7_ISF_EEEEED2B8ue170006Ev, symObjAddr: 0xDFF8, symBinAddr: 0x10000FA50, symSize: 0x30 }
  - { offsetInCU: 0x20911, offset: 0x20911, size: 0x8, addend: 0x0, symName: __ZNSt3__110unique_ptrIA_PNS_16__hash_node_baseIPNS_11__hash_nodeINS_17__hash_value_typeINS_12basic_stringIcNS_11char_traitsIcEENS_9allocatorIcEEEES9_EEPvEEEENS_25__bucket_list_deallocatorINS7_ISF_EEEEE5resetB8ue170006EDn, symObjAddr: 0xE028, symBinAddr: 0x10000FA80, symSize: 0x6C }
  - { offsetInCU: 0x20951, offset: 0x20951, size: 0x8, addend: 0x0, symName: __ZNSt3__117__compressed_pairIPPNS_16__hash_node_baseIPNS_11__hash_nodeINS_17__hash_value_typeINS_12basic_stringIcNS_11char_traitsIcEENS_9allocatorIcEEEES9_EEPvEEEENS_25__bucket_list_deallocatorINS7_ISF_EEEEE5firstB8ue170006Ev, symObjAddr: 0xE094, symBinAddr: 0x10000FAEC, symSize: 0x24 }
  - { offsetInCU: 0x20977, offset: 0x20977, size: 0x8, addend: 0x0, symName: __ZNSt3__117__compressed_pairIPPNS_16__hash_node_baseIPNS_11__hash_nodeINS_17__hash_value_typeINS_12basic_stringIcNS_11char_traitsIcEENS_9allocatorIcEEEES9_EEPvEEEENS_25__bucket_list_deallocatorINS7_ISF_EEEEE6secondB8ue170006Ev, symObjAddr: 0xE0B8, symBinAddr: 0x10000FB10, symSize: 0x28 }
  - { offsetInCU: 0x2099D, offset: 0x2099D, size: 0x8, addend: 0x0, symName: __ZNSt3__125__bucket_list_deallocatorINS_9allocatorIPNS_16__hash_node_baseIPNS_11__hash_nodeINS_17__hash_value_typeINS_12basic_stringIcNS_11char_traitsIcEENS1_IcEEEES9_EEPvEEEEEEEclB8ue170006EPSF_, symObjAddr: 0xE0E0, symBinAddr: 0x10000FB38, symSize: 0x58 }
  - { offsetInCU: 0x209D2, offset: 0x209D2, size: 0x8, addend: 0x0, symName: __ZNSt3__122__compressed_pair_elemIPPNS_16__hash_node_baseIPNS_11__hash_nodeINS_17__hash_value_typeINS_12basic_stringIcNS_11char_traitsIcEENS_9allocatorIcEEEES9_EEPvEEEELi0ELb0EE5__getB8ue170006Ev, symObjAddr: 0xE138, symBinAddr: 0x10000FB90, symSize: 0x14 }
  - { offsetInCU: 0x209F8, offset: 0x209F8, size: 0x8, addend: 0x0, symName: __ZNSt3__122__compressed_pair_elemINS_25__bucket_list_deallocatorINS_9allocatorIPNS_16__hash_node_baseIPNS_11__hash_nodeINS_17__hash_value_typeINS_12basic_stringIcNS_11char_traitsIcEENS2_IcEEEESA_EEPvEEEEEEEELi1ELb0EE5__getB8ue170006Ev, symObjAddr: 0xE14C, symBinAddr: 0x10000FBA4, symSize: 0x14 }
  - { offsetInCU: 0x20A1E, offset: 0x20A1E, size: 0x8, addend: 0x0, symName: __ZNSt3__116allocator_traitsINS_9allocatorIPNS_16__hash_node_baseIPNS_11__hash_nodeINS_17__hash_value_typeINS_12basic_stringIcNS_11char_traitsIcEENS1_IcEEEES9_EEPvEEEEEEE10deallocateB8ue170006ERSG_PSF_m, symObjAddr: 0xE160, symBinAddr: 0x10000FBB8, symSize: 0x34 }
  - { offsetInCU: 0x20A60, offset: 0x20A60, size: 0x8, addend: 0x0, symName: __ZNSt3__125__bucket_list_deallocatorINS_9allocatorIPNS_16__hash_node_baseIPNS_11__hash_nodeINS_17__hash_value_typeINS_12basic_stringIcNS_11char_traitsIcEENS1_IcEEEES9_EEPvEEEEEEE7__allocB8ue170006Ev, symObjAddr: 0xE194, symBinAddr: 0x10000FBEC, symSize: 0x24 }
  - { offsetInCU: 0x20A86, offset: 0x20A86, size: 0x8, addend: 0x0, symName: __ZNSt3__125__bucket_list_deallocatorINS_9allocatorIPNS_16__hash_node_baseIPNS_11__hash_nodeINS_17__hash_value_typeINS_12basic_stringIcNS_11char_traitsIcEENS1_IcEEEES9_EEPvEEEEEEE4sizeB8ue170006Ev, symObjAddr: 0xE1B8, symBinAddr: 0x10000FC10, symSize: 0x24 }
  - { offsetInCU: 0x20AAC, offset: 0x20AAC, size: 0x8, addend: 0x0, symName: __ZNSt3__19allocatorIPNS_16__hash_node_baseIPNS_11__hash_nodeINS_17__hash_value_typeINS_12basic_stringIcNS_11char_traitsIcEENS0_IcEEEES8_EEPvEEEEE10deallocateB8ue170006EPSE_m, symObjAddr: 0xE1DC, symBinAddr: 0x10000FC34, symSize: 0x70 }
  - { offsetInCU: 0x20AEE, offset: 0x20AEE, size: 0x8, addend: 0x0, symName: __ZNSt3__117__compressed_pairImNS_9allocatorIPNS_16__hash_node_baseIPNS_11__hash_nodeINS_17__hash_value_typeINS_12basic_stringIcNS_11char_traitsIcEENS1_IcEEEES9_EEPvEEEEEEE6secondB8ue170006Ev, symObjAddr: 0xE24C, symBinAddr: 0x10000FCA4, symSize: 0x24 }
  - { offsetInCU: 0x20B14, offset: 0x20B14, size: 0x8, addend: 0x0, symName: __ZNSt3__122__compressed_pair_elemINS_9allocatorIPNS_16__hash_node_baseIPNS_11__hash_nodeINS_17__hash_value_typeINS_12basic_stringIcNS_11char_traitsIcEENS1_IcEEEES9_EEPvEEEEEELi1ELb1EE5__getB8ue170006Ev, symObjAddr: 0xE270, symBinAddr: 0x10000FCC8, symSize: 0x14 }
  - { offsetInCU: 0x20B3A, offset: 0x20B3A, size: 0x8, addend: 0x0, symName: __ZNSt3__117__compressed_pairImNS_9allocatorIPNS_16__hash_node_baseIPNS_11__hash_nodeINS_17__hash_value_typeINS_12basic_stringIcNS_11char_traitsIcEENS1_IcEEEES9_EEPvEEEEEEE5firstB8ue170006Ev, symObjAddr: 0xE284, symBinAddr: 0x10000FCDC, symSize: 0x24 }
  - { offsetInCU: 0x20B60, offset: 0x20B60, size: 0x8, addend: 0x0, symName: __ZNSt3__113unordered_mapINS_12basic_stringIcNS_11char_traitsIcEENS_9allocatorIcEEEES6_NS_4hashIS6_EENS_8equal_toIS6_EENS4_INS_4pairIKS6_S6_EEEEED2B8ue170006Ev, symObjAddr: 0xE2A8, symBinAddr: 0x10000FD00, symSize: 0x2C }
  - { offsetInCU: 0x20B8A, offset: 0x20B8A, size: 0x8, addend: 0x0, symName: __ZNSt3__112__hash_tableINS_17__hash_value_typeINS_12basic_stringIcNS_11char_traitsIcEENS_9allocatorIcEEEES7_EENS_22__unordered_map_hasherIS7_S8_NS_4hashIS7_EENS_8equal_toIS7_EELb1EEENS_21__unordered_map_equalIS7_S8_SD_SB_Lb1EEENS5_IS8_EEED1Ev, symObjAddr: 0xE2D4, symBinAddr: 0x10000FD2C, symSize: 0x2C }
  - { offsetInCU: 0x20BB6, offset: 0x20BB6, size: 0x8, addend: 0x0, symName: __ZNSt3__112__hash_tableINS_17__hash_value_typeINS_12basic_stringIcNS_11char_traitsIcEENS_9allocatorIcEEEES7_EENS_22__unordered_map_hasherIS7_S8_NS_4hashIS7_EENS_8equal_toIS7_EELb1EEENS_21__unordered_map_equalIS7_S8_SD_SB_Lb1EEENS5_IS8_EEED2Ev, symObjAddr: 0xE300, symBinAddr: 0x10000FD58, symSize: 0x48 }
  - { offsetInCU: 0x20BE2, offset: 0x20BE2, size: 0x8, addend: 0x0, symName: __ZNSt3__112__hash_tableINS_17__hash_value_typeINS_12basic_stringIcNS_11char_traitsIcEENS_9allocatorIcEEEES7_EENS_22__unordered_map_hasherIS7_S8_NS_4hashIS7_EENS_8equal_toIS7_EELb1EEENS_21__unordered_map_equalIS7_S8_SD_SB_Lb1EEENS5_IS8_EEE17__deallocate_nodeEPNS_16__hash_node_baseIPNS_11__hash_nodeIS8_PvEEEE, symObjAddr: 0xE348, symBinAddr: 0x10000FDA0, symSize: 0xBC }
  - { offsetInCU: 0x20C4C, offset: 0x20C4C, size: 0x8, addend: 0x0, symName: __ZNSt3__117__compressed_pairINS_16__hash_node_baseIPNS_11__hash_nodeINS_17__hash_value_typeINS_12basic_stringIcNS_11char_traitsIcEENS_9allocatorIcEEEES9_EEPvEEEENS7_ISC_EEE5firstB8ue170006Ev, symObjAddr: 0xE404, symBinAddr: 0x10000FE5C, symSize: 0x24 }
  - { offsetInCU: 0x20C72, offset: 0x20C72, size: 0x8, addend: 0x0, symName: __ZNSt3__112__hash_tableINS_17__hash_value_typeINS_12basic_stringIcNS_11char_traitsIcEENS_9allocatorIcEEEES7_EENS_22__unordered_map_hasherIS7_S8_NS_4hashIS7_EENS_8equal_toIS7_EELb1EEENS_21__unordered_map_equalIS7_S8_SD_SB_Lb1EEENS5_IS8_EEE12__node_allocB8ue170006Ev, symObjAddr: 0xE428, symBinAddr: 0x10000FE80, symSize: 0x28 }
  - { offsetInCU: 0x20C98, offset: 0x20C98, size: 0x8, addend: 0x0, symName: __ZNSt3__116__hash_node_baseIPNS_11__hash_nodeINS_17__hash_value_typeINS_12basic_stringIcNS_11char_traitsIcEENS_9allocatorIcEEEES8_EEPvEEE8__upcastB8ue170006Ev, symObjAddr: 0xE450, symBinAddr: 0x10000FEA8, symSize: 0x24 }
  - { offsetInCU: 0x20CBE, offset: 0x20CBE, size: 0x8, addend: 0x0, symName: __ZNSt3__116allocator_traitsINS_9allocatorINS_11__hash_nodeINS_17__hash_value_typeINS_12basic_stringIcNS_11char_traitsIcEENS1_IcEEEES8_EEPvEEEEE7destroyB8ue170006INS_4pairIKS8_S8_EEvvEEvRSC_PT_, symObjAddr: 0xE474, symBinAddr: 0x10000FECC, symSize: 0x28 }
  - { offsetInCU: 0x20CF8, offset: 0x20CF8, size: 0x8, addend: 0x0, symName: __ZNSt3__122__hash_key_value_typesINS_17__hash_value_typeINS_12basic_stringIcNS_11char_traitsIcEENS_9allocatorIcEEEES7_EEE9__get_ptrB8ue170006ERS8_, symObjAddr: 0xE49C, symBinAddr: 0x10000FEF4, symSize: 0x24 }
  - { offsetInCU: 0x20D1B, offset: 0x20D1B, size: 0x8, addend: 0x0, symName: __ZNSt3__116allocator_traitsINS_9allocatorINS_11__hash_nodeINS_17__hash_value_typeINS_12basic_stringIcNS_11char_traitsIcEENS1_IcEEEES8_EEPvEEEEE10deallocateB8ue170006ERSC_PSB_m, symObjAddr: 0xE4C0, symBinAddr: 0x10000FF18, symSize: 0x34 }
  - { offsetInCU: 0x20D5D, offset: 0x20D5D, size: 0x8, addend: 0x0, symName: __ZNSt3__117__compressed_pairINS_16__hash_node_baseIPNS_11__hash_nodeINS_17__hash_value_typeINS_12basic_stringIcNS_11char_traitsIcEENS_9allocatorIcEEEES9_EEPvEEEENS7_ISC_EEE6secondB8ue170006Ev, symObjAddr: 0xE4F4, symBinAddr: 0x10000FF4C, symSize: 0x24 }
  - { offsetInCU: 0x20D83, offset: 0x20D83, size: 0x8, addend: 0x0, symName: __ZNSt3__122__compressed_pair_elemINS_9allocatorINS_11__hash_nodeINS_17__hash_value_typeINS_12basic_stringIcNS_11char_traitsIcEENS1_IcEEEES8_EEPvEEEELi1ELb1EE5__getB8ue170006Ev, symObjAddr: 0xE518, symBinAddr: 0x10000FF70, symSize: 0x14 }
  - { offsetInCU: 0x20DA9, offset: 0x20DA9, size: 0x8, addend: 0x0, symName: __ZNSt3__114pointer_traitsIPNS_16__hash_node_baseIPNS_11__hash_nodeINS_17__hash_value_typeINS_12basic_stringIcNS_11char_traitsIcEENS_9allocatorIcEEEES9_EEPvEEEEE10pointer_toB8ue170006ERSE_, symObjAddr: 0xE52C, symBinAddr: 0x10000FF84, symSize: 0x14 }
  - { offsetInCU: 0x20DCC, offset: 0x20DCC, size: 0x8, addend: 0x0, symName: __ZNSt3__14pairIKNS_12basic_stringIcNS_11char_traitsIcEENS_9allocatorIcEEEES6_ED1Ev, symObjAddr: 0xE540, symBinAddr: 0x10000FF98, symSize: 0x2C }
  - { offsetInCU: 0x20DF8, offset: 0x20DF8, size: 0x8, addend: 0x0, symName: __ZNSt3__14pairIKNS_12basic_stringIcNS_11char_traitsIcEENS_9allocatorIcEEEES6_ED2Ev, symObjAddr: 0xE56C, symBinAddr: 0x10000FFC4, symSize: 0x68 }
  - { offsetInCU: 0x20E24, offset: 0x20E24, size: 0x8, addend: 0x0, symName: __ZNSt3__117__hash_value_typeINS_12basic_stringIcNS_11char_traitsIcEENS_9allocatorIcEEEES6_E11__get_valueB8ue170006Ev, symObjAddr: 0xE5D4, symBinAddr: 0x10001002C, symSize: 0x14 }
  - { offsetInCU: 0x20E4A, offset: 0x20E4A, size: 0x8, addend: 0x0, symName: __ZNSt3__19allocatorINS_11__hash_nodeINS_17__hash_value_typeINS_12basic_stringIcNS_11char_traitsIcEENS0_IcEEEES7_EEPvEEE10deallocateB8ue170006EPSA_m, symObjAddr: 0xE5E8, symBinAddr: 0x100010040, symSize: 0x70 }
  - { offsetInCU: 0x20E8C, offset: 0x20E8C, size: 0x8, addend: 0x0, symName: __ZNSt3__122__compressed_pair_elemINS_16__hash_node_baseIPNS_11__hash_nodeINS_17__hash_value_typeINS_12basic_stringIcNS_11char_traitsIcEENS_9allocatorIcEEEES9_EEPvEEEELi0ELb0EE5__getB8ue170006Ev, symObjAddr: 0xE658, symBinAddr: 0x1000100B0, symSize: 0x14 }
  - { offsetInCU: 0x20EB2, offset: 0x20EB2, size: 0x8, addend: 0x0, symName: __ZNSt3__111char_traitsIcE6lengthB8ue170006EPKc, symObjAddr: 0xE860, symBinAddr: 0x1000102B8, symSize: 0x48 }
  - { offsetInCU: 0x20EF3, offset: 0x20EF3, size: 0x8, addend: 0x0, symName: __ZNKSt3__113basic_ostreamIcNS_11char_traitsIcEEE6sentrycvbB8ue170006Ev, symObjAddr: 0xE8A8, symBinAddr: 0x100010300, symSize: 0x1C }
  - { offsetInCU: 0x20F19, offset: 0x20F19, size: 0x8, addend: 0x0, symName: __ZNSt3__119ostreambuf_iteratorIcNS_11char_traitsIcEEEC1B8ue170006ERNS_13basic_ostreamIcS2_EE, symObjAddr: 0xEB0C, symBinAddr: 0x100010564, symSize: 0x34 }
  - { offsetInCU: 0x20F51, offset: 0x20F51, size: 0x8, addend: 0x0, symName: __ZNKSt3__18ios_base5flagsB8ue170006Ev, symObjAddr: 0xEB40, symBinAddr: 0x100010598, symSize: 0x18 }
  - { offsetInCU: 0x20F79, offset: 0x20F79, size: 0x8, addend: 0x0, symName: __ZNKSt3__19basic_iosIcNS_11char_traitsIcEEE4fillB8ue170006Ev, symObjAddr: 0xEB58, symBinAddr: 0x1000105B0, symSize: 0x64 }
  - { offsetInCU: 0x20FA1, offset: 0x20FA1, size: 0x8, addend: 0x0, symName: __ZNKSt3__119ostreambuf_iteratorIcNS_11char_traitsIcEEE6failedB8ue170006Ev, symObjAddr: 0xEBBC, symBinAddr: 0x100010614, symSize: 0x24 }
  - { offsetInCU: 0x20FC7, offset: 0x20FC7, size: 0x8, addend: 0x0, symName: __ZNSt3__19basic_iosIcNS_11char_traitsIcEEE8setstateB8ue170006Ej, symObjAddr: 0xEBE0, symBinAddr: 0x100010638, symSize: 0x2C }
  - { offsetInCU: 0x20FFC, offset: 0x20FFC, size: 0x8, addend: 0x0, symName: __ZNKSt3__18ios_base5widthB8ue170006Ev, symObjAddr: 0xEC0C, symBinAddr: 0x100010664, symSize: 0x18 }
  - { offsetInCU: 0x21024, offset: 0x21024, size: 0x8, addend: 0x0, symName: __ZNSt3__115basic_streambufIcNS_11char_traitsIcEEE5sputnB8ue170006EPKcl, symObjAddr: 0xEC24, symBinAddr: 0x10001067C, symSize: 0x3C }
  - { offsetInCU: 0x21066, offset: 0x21066, size: 0x8, addend: 0x0, symName: __ZNSt3__112basic_stringIcNS_11char_traitsIcEENS_9allocatorIcEEEC1B8ue170006Emc, symObjAddr: 0xEC60, symBinAddr: 0x1000106B8, symSize: 0x3C }
  - { offsetInCU: 0x210AE, offset: 0x210AE, size: 0x8, addend: 0x0, symName: __ZNSt3__18ios_base5widthB8ue170006El, symObjAddr: 0xEC9C, symBinAddr: 0x1000106F4, symSize: 0x2C }
  - { offsetInCU: 0x210F4, offset: 0x210F4, size: 0x8, addend: 0x0, symName: __ZNSt3__112basic_stringIcNS_11char_traitsIcEENS_9allocatorIcEEEC2B8ue170006Emc, symObjAddr: 0xECC8, symBinAddr: 0x100010720, symSize: 0x4C }
  - { offsetInCU: 0x2113C, offset: 0x2113C, size: 0x8, addend: 0x0, symName: __ZNSt3__117__compressed_pairINS_12basic_stringIcNS_11char_traitsIcEENS_9allocatorIcEEE5__repES5_EC1B8ue170006INS_18__default_init_tagESA_EEOT_OT0_, symObjAddr: 0xED14, symBinAddr: 0x10001076C, symSize: 0x3C }
  - { offsetInCU: 0x21194, offset: 0x21194, size: 0x8, addend: 0x0, symName: __ZNSt3__117__compressed_pairINS_12basic_stringIcNS_11char_traitsIcEENS_9allocatorIcEEE5__repES5_EC2B8ue170006INS_18__default_init_tagESA_EEOT_OT0_, symObjAddr: 0xED50, symBinAddr: 0x1000107A8, symSize: 0x3C }
  - { offsetInCU: 0x211EC, offset: 0x211EC, size: 0x8, addend: 0x0, symName: __ZNSt3__122__compressed_pair_elemINS_12basic_stringIcNS_11char_traitsIcEENS_9allocatorIcEEE5__repELi0ELb0EEC2B8ue170006ENS_18__default_init_tagE, symObjAddr: 0xED8C, symBinAddr: 0x1000107E4, symSize: 0x14 }
  - { offsetInCU: 0x21220, offset: 0x21220, size: 0x8, addend: 0x0, symName: __ZNSt3__122__compressed_pair_elemINS_9allocatorIcEELi1ELb1EEC2B8ue170006ENS_18__default_init_tagE, symObjAddr: 0xEDA0, symBinAddr: 0x1000107F8, symSize: 0x2C }
  - { offsetInCU: 0x21254, offset: 0x21254, size: 0x8, addend: 0x0, symName: __ZNSt3__19allocatorIcEC2B8ue170006Ev, symObjAddr: 0xEDCC, symBinAddr: 0x100010824, symSize: 0x2C }
  - { offsetInCU: 0x2127E, offset: 0x2127E, size: 0x8, addend: 0x0, symName: __ZNSt3__116__non_trivial_ifILb1ENS_9allocatorIcEEEC2B8ue170006Ev, symObjAddr: 0xEDF8, symBinAddr: 0x100010850, symSize: 0x14 }
  - { offsetInCU: 0x212A8, offset: 0x212A8, size: 0x8, addend: 0x0, symName: __ZNSt3__119ostreambuf_iteratorIcNS_11char_traitsIcEEEC2B8ue170006ERNS_13basic_ostreamIcS2_EE, symObjAddr: 0xEE0C, symBinAddr: 0x100010864, symSize: 0x68 }
  - { offsetInCU: 0x212E0, offset: 0x212E0, size: 0x8, addend: 0x0, symName: __ZNKSt3__19basic_iosIcNS_11char_traitsIcEEE5rdbufB8ue170006Ev, symObjAddr: 0xEE74, symBinAddr: 0x1000108CC, symSize: 0x24 }
  - { offsetInCU: 0x21308, offset: 0x21308, size: 0x8, addend: 0x0, symName: __ZNKSt3__18ios_base5rdbufB8ue170006Ev, symObjAddr: 0xEE98, symBinAddr: 0x1000108F0, symSize: 0x18 }
  - { offsetInCU: 0x2132E, offset: 0x2132E, size: 0x8, addend: 0x0, symName: __ZNSt3__111char_traitsIcE11eq_int_typeB8ue170006Eii, symObjAddr: 0xEEB0, symBinAddr: 0x100010908, symSize: 0x28 }
  - { offsetInCU: 0x21361, offset: 0x21361, size: 0x8, addend: 0x0, symName: __ZNSt3__111char_traitsIcE3eofB8ue170006Ev, symObjAddr: 0xEED8, symBinAddr: 0x100010930, symSize: 0x8 }
  - { offsetInCU: 0x21375, offset: 0x21375, size: 0x8, addend: 0x0, symName: __ZNKSt3__19basic_iosIcNS_11char_traitsIcEEE5widenB8ue170006Ec, symObjAddr: 0xEEE0, symBinAddr: 0x100010938, symSize: 0x8C }
  - { offsetInCU: 0x213DE, offset: 0x213DE, size: 0x8, addend: 0x0, symName: __ZNKSt3__15ctypeIcE5widenB8ue170006Ec, symObjAddr: 0xEF98, symBinAddr: 0x1000109F0, symSize: 0x38 }
  - { offsetInCU: 0x21413, offset: 0x21413, size: 0x8, addend: 0x0, symName: __ZNSt3__18ios_base8setstateB8ue170006Ej, symObjAddr: 0xEFD0, symBinAddr: 0x100010A28, symSize: 0x34 }
  - { offsetInCU: 0x2144A, offset: 0x2144A, size: 0x8, addend: 0x0, symName: __ZNSt3__113unordered_mapINS_12basic_stringIcNS_11char_traitsIcEENS_9allocatorIcEEEES6_NS_4hashIS6_EENS_8equal_toIS6_EENS4_INS_4pairIKS6_S6_EEEEE4findB8ue170006ERSC_, symObjAddr: 0xF028, symBinAddr: 0x100010A80, symSize: 0x40 }
  - { offsetInCU: 0x2147F, offset: 0x2147F, size: 0x8, addend: 0x0, symName: __ZNSt3__113unordered_mapINS_12basic_stringIcNS_11char_traitsIcEENS_9allocatorIcEEEES6_NS_4hashIS6_EENS_8equal_toIS6_EENS4_INS_4pairIKS6_S6_EEEEE3endB8ue170006Ev, symObjAddr: 0xF098, symBinAddr: 0x100010AF0, symSize: 0x38 }
  - { offsetInCU: 0x214A5, offset: 0x214A5, size: 0x8, addend: 0x0, symName: __ZNKSt3__119__hash_map_iteratorINS_15__hash_iteratorIPNS_11__hash_nodeINS_17__hash_value_typeINS_12basic_stringIcNS_11char_traitsIcEENS_9allocatorIcEEEES9_EEPvEEEEEptB8ue170006Ev, symObjAddr: 0xF0D0, symBinAddr: 0x100010B28, symSize: 0x2C }
  - { offsetInCU: 0x214CB, offset: 0x214CB, size: 0x8, addend: 0x0, symName: __ZNSt3__113unordered_mapINS_12basic_stringIcNS_11char_traitsIcEENS_9allocatorIcEEEES6_NS_4hashIS6_EENS_8equal_toIS6_EENS4_INS_4pairIKS6_S6_EEEEE25__construct_node_with_keyERSC_, symObjAddr: 0xF0FC, symBinAddr: 0x100010B54, symSize: 0x144 }
  - { offsetInCU: 0x21521, offset: 0x21521, size: 0x8, addend: 0x0, symName: __ZNSt3__112__hash_tableINS_17__hash_value_typeINS_12basic_stringIcNS_11char_traitsIcEENS_9allocatorIcEEEES7_EENS_22__unordered_map_hasherIS7_S8_NS_4hashIS7_EENS_8equal_toIS7_EELb1EEENS_21__unordered_map_equalIS7_S8_SD_SB_Lb1EEENS5_IS8_EEE20__node_insert_uniqueEPNS_11__hash_nodeIS8_PvEE, symObjAddr: 0xF240, symBinAddr: 0x100010C98, symSize: 0xC4 }
  - { offsetInCU: 0x21576, offset: 0x21576, size: 0x8, addend: 0x0, symName: __ZNKSt3__110unique_ptrINS_11__hash_nodeINS_17__hash_value_typeINS_12basic_stringIcNS_11char_traitsIcEENS_9allocatorIcEEEES8_EEPvEENS_26__hash_map_node_destructorINS6_ISB_EEEEE3getB8ue170006Ev, symObjAddr: 0xF304, symBinAddr: 0x100010D5C, symSize: 0x28 }
  - { offsetInCU: 0x2159C, offset: 0x2159C, size: 0x8, addend: 0x0, symName: __ZNSt3__14pairINS_19__hash_map_iteratorINS_15__hash_iteratorIPNS_11__hash_nodeINS_17__hash_value_typeINS_12basic_stringIcNS_11char_traitsIcEENS_9allocatorIcEEEESA_EEPvEEEEEEbEC1B8ue170006ISF_bEERKNS0_IT_T0_EE, symObjAddr: 0xF32C, symBinAddr: 0x100010D84, symSize: 0x34 }
  - { offsetInCU: 0x215E6, offset: 0x215E6, size: 0x8, addend: 0x0, symName: __ZNSt3__110unique_ptrINS_11__hash_nodeINS_17__hash_value_typeINS_12basic_stringIcNS_11char_traitsIcEENS_9allocatorIcEEEES8_EEPvEENS_26__hash_map_node_destructorINS6_ISB_EEEEE7releaseB8ue170006Ev, symObjAddr: 0xF360, symBinAddr: 0x100010DB8, symSize: 0x44 }
  - { offsetInCU: 0x2161B, offset: 0x2161B, size: 0x8, addend: 0x0, symName: __ZNSt3__110unique_ptrINS_11__hash_nodeINS_17__hash_value_typeINS_12basic_stringIcNS_11char_traitsIcEENS_9allocatorIcEEEES8_EEPvEENS_26__hash_map_node_destructorINS6_ISB_EEEEED1B8ue170006Ev, symObjAddr: 0xF3A4, symBinAddr: 0x100010DFC, symSize: 0x2C }
  - { offsetInCU: 0x21645, offset: 0x21645, size: 0x8, addend: 0x0, symName: __ZNSt3__112__hash_tableINS_17__hash_value_typeINS_12basic_stringIcNS_11char_traitsIcEENS_9allocatorIcEEEES7_EENS_22__unordered_map_hasherIS7_S8_NS_4hashIS7_EENS_8equal_toIS7_EELb1EEENS_21__unordered_map_equalIS7_S8_SD_SB_Lb1EEENS5_IS8_EEE4findIS7_EENS_15__hash_iteratorIPNS_11__hash_nodeIS8_PvEEEERKT_, symObjAddr: 0xF3D0, symBinAddr: 0x100010E28, symSize: 0x1B0 }
  - { offsetInCU: 0x216D0, offset: 0x216D0, size: 0x8, addend: 0x0, symName: __ZNSt3__119__hash_map_iteratorINS_15__hash_iteratorIPNS_11__hash_nodeINS_17__hash_value_typeINS_12basic_stringIcNS_11char_traitsIcEENS_9allocatorIcEEEES9_EEPvEEEEEC1B8ue170006ESE_, symObjAddr: 0xF580, symBinAddr: 0x100010FD8, symSize: 0x34 }
  - { offsetInCU: 0x21709, offset: 0x21709, size: 0x8, addend: 0x0, symName: __ZNSt3__112__hash_tableINS_17__hash_value_typeINS_12basic_stringIcNS_11char_traitsIcEENS_9allocatorIcEEEES7_EENS_22__unordered_map_hasherIS7_S8_NS_4hashIS7_EENS_8equal_toIS7_EELb1EEENS_21__unordered_map_equalIS7_S8_SD_SB_Lb1EEENS5_IS8_EEE13hash_functionB8ue170006Ev, symObjAddr: 0xF5B4, symBinAddr: 0x10001100C, symSize: 0x28 }
  - { offsetInCU: 0x2172F, offset: 0x2172F, size: 0x8, addend: 0x0, symName: __ZNKSt3__122__unordered_map_hasherINS_12basic_stringIcNS_11char_traitsIcEENS_9allocatorIcEEEENS_17__hash_value_typeIS6_S6_EENS_4hashIS6_EENS_8equal_toIS6_EELb1EEclB8ue170006ERKS6_, symObjAddr: 0xF5DC, symBinAddr: 0x100011034, symSize: 0x2C }
  - { offsetInCU: 0x21764, offset: 0x21764, size: 0x8, addend: 0x0, symName: __ZNKSt3__112__hash_tableINS_17__hash_value_typeINS_12basic_stringIcNS_11char_traitsIcEENS_9allocatorIcEEEES7_EENS_22__unordered_map_hasherIS7_S8_NS_4hashIS7_EENS_8equal_toIS7_EELb1EEENS_21__unordered_map_equalIS7_S8_SD_SB_Lb1EEENS5_IS8_EEE12bucket_countB8ue170006Ev, symObjAddr: 0xF608, symBinAddr: 0x100011060, symSize: 0x28 }
  - { offsetInCU: 0x2178A, offset: 0x2178A, size: 0x8, addend: 0x0, symName: __ZNKSt3__110unique_ptrIA_PNS_16__hash_node_baseIPNS_11__hash_nodeINS_17__hash_value_typeINS_12basic_stringIcNS_11char_traitsIcEENS_9allocatorIcEEEES9_EEPvEEEENS_25__bucket_list_deallocatorINS7_ISF_EEEEEixB8ue170006Em, symObjAddr: 0xF630, symBinAddr: 0x100011088, symSize: 0x34 }
  - { offsetInCU: 0x217BF, offset: 0x217BF, size: 0x8, addend: 0x0, symName: __ZNKSt3__116__hash_node_baseIPNS_11__hash_nodeINS_17__hash_value_typeINS_12basic_stringIcNS_11char_traitsIcEENS_9allocatorIcEEEES8_EEPvEEE6__hashB8ue170006Ev, symObjAddr: 0xF664, symBinAddr: 0x1000110BC, symSize: 0x18 }
  - { offsetInCU: 0x217E5, offset: 0x217E5, size: 0x8, addend: 0x0, symName: __ZNSt3__112__hash_tableINS_17__hash_value_typeINS_12basic_stringIcNS_11char_traitsIcEENS_9allocatorIcEEEES7_EENS_22__unordered_map_hasherIS7_S8_NS_4hashIS7_EENS_8equal_toIS7_EELb1EEENS_21__unordered_map_equalIS7_S8_SD_SB_Lb1EEENS5_IS8_EEE6key_eqB8ue170006Ev, symObjAddr: 0xF67C, symBinAddr: 0x1000110D4, symSize: 0x28 }
  - { offsetInCU: 0x2180B, offset: 0x2180B, size: 0x8, addend: 0x0, symName: __ZNKSt3__121__unordered_map_equalINS_12basic_stringIcNS_11char_traitsIcEENS_9allocatorIcEEEENS_17__hash_value_typeIS6_S6_EENS_8equal_toIS6_EENS_4hashIS6_EELb1EEclB8ue170006ERKS8_RKS6_, symObjAddr: 0xF6A4, symBinAddr: 0x1000110FC, symSize: 0x48 }
  - { offsetInCU: 0x2184F, offset: 0x2184F, size: 0x8, addend: 0x0, symName: __ZNSt3__115__hash_iteratorIPNS_11__hash_nodeINS_17__hash_value_typeINS_12basic_stringIcNS_11char_traitsIcEENS_9allocatorIcEEEES8_EEPvEEEC1B8ue170006EPNS_16__hash_node_baseISC_EE, symObjAddr: 0xF6EC, symBinAddr: 0x100011144, symSize: 0x34 }
  - { offsetInCU: 0x21888, offset: 0x21888, size: 0x8, addend: 0x0, symName: __ZNSt3__112__hash_tableINS_17__hash_value_typeINS_12basic_stringIcNS_11char_traitsIcEENS_9allocatorIcEEEES7_EENS_22__unordered_map_hasherIS7_S8_NS_4hashIS7_EENS_8equal_toIS7_EELb1EEENS_21__unordered_map_equalIS7_S8_SD_SB_Lb1EEENS5_IS8_EEE3endEv, symObjAddr: 0xF720, symBinAddr: 0x100011178, symSize: 0x2C }
  - { offsetInCU: 0x218B0, offset: 0x218B0, size: 0x8, addend: 0x0, symName: __ZNSt3__117__compressed_pairImNS_22__unordered_map_hasherINS_12basic_stringIcNS_11char_traitsIcEENS_9allocatorIcEEEENS_17__hash_value_typeIS7_S7_EENS_4hashIS7_EENS_8equal_toIS7_EELb1EEEE6secondB8ue170006Ev, symObjAddr: 0xF74C, symBinAddr: 0x1000111A4, symSize: 0x24 }
  - { offsetInCU: 0x218D6, offset: 0x218D6, size: 0x8, addend: 0x0, symName: __ZNSt3__122__compressed_pair_elemINS_22__unordered_map_hasherINS_12basic_stringIcNS_11char_traitsIcEENS_9allocatorIcEEEENS_17__hash_value_typeIS7_S7_EENS_4hashIS7_EENS_8equal_toIS7_EELb1EEELi1ELb1EE5__getB8ue170006Ev, symObjAddr: 0xF770, symBinAddr: 0x1000111C8, symSize: 0x14 }
  - { offsetInCU: 0x218FC, offset: 0x218FC, size: 0x8, addend: 0x0, symName: __ZNKSt3__110unique_ptrIA_PNS_16__hash_node_baseIPNS_11__hash_nodeINS_17__hash_value_typeINS_12basic_stringIcNS_11char_traitsIcEENS_9allocatorIcEEEES9_EEPvEEEENS_25__bucket_list_deallocatorINS7_ISF_EEEEE11get_deleterB8ue170006Ev, symObjAddr: 0xF784, symBinAddr: 0x1000111DC, symSize: 0x24 }
  - { offsetInCU: 0x21922, offset: 0x21922, size: 0x8, addend: 0x0, symName: __ZNKSt3__125__bucket_list_deallocatorINS_9allocatorIPNS_16__hash_node_baseIPNS_11__hash_nodeINS_17__hash_value_typeINS_12basic_stringIcNS_11char_traitsIcEENS1_IcEEEES9_EEPvEEEEEEE4sizeB8ue170006Ev, symObjAddr: 0xF7A8, symBinAddr: 0x100011200, symSize: 0x28 }
  - { offsetInCU: 0x21948, offset: 0x21948, size: 0x8, addend: 0x0, symName: __ZNKSt3__117__compressed_pairIPPNS_16__hash_node_baseIPNS_11__hash_nodeINS_17__hash_value_typeINS_12basic_stringIcNS_11char_traitsIcEENS_9allocatorIcEEEES9_EEPvEEEENS_25__bucket_list_deallocatorINS7_ISF_EEEEE6secondB8ue170006Ev, symObjAddr: 0xF7D0, symBinAddr: 0x100011228, symSize: 0x28 }
  - { offsetInCU: 0x2196E, offset: 0x2196E, size: 0x8, addend: 0x0, symName: __ZNKSt3__122__compressed_pair_elemINS_25__bucket_list_deallocatorINS_9allocatorIPNS_16__hash_node_baseIPNS_11__hash_nodeINS_17__hash_value_typeINS_12basic_stringIcNS_11char_traitsIcEENS2_IcEEEESA_EEPvEEEEEEEELi1ELb0EE5__getB8ue170006Ev, symObjAddr: 0xF7F8, symBinAddr: 0x100011250, symSize: 0x14 }
  - { offsetInCU: 0x21994, offset: 0x21994, size: 0x8, addend: 0x0, symName: __ZNKSt3__117__compressed_pairImNS_9allocatorIPNS_16__hash_node_baseIPNS_11__hash_nodeINS_17__hash_value_typeINS_12basic_stringIcNS_11char_traitsIcEENS1_IcEEEES9_EEPvEEEEEEE5firstB8ue170006Ev, symObjAddr: 0xF80C, symBinAddr: 0x100011264, symSize: 0x24 }
  - { offsetInCU: 0x219BA, offset: 0x219BA, size: 0x8, addend: 0x0, symName: __ZNKSt3__117__compressed_pairIPPNS_16__hash_node_baseIPNS_11__hash_nodeINS_17__hash_value_typeINS_12basic_stringIcNS_11char_traitsIcEENS_9allocatorIcEEEES9_EEPvEEEENS_25__bucket_list_deallocatorINS7_ISF_EEEEE5firstB8ue170006Ev, symObjAddr: 0xF830, symBinAddr: 0x100011288, symSize: 0x24 }
  - { offsetInCU: 0x219E0, offset: 0x219E0, size: 0x8, addend: 0x0, symName: __ZNKSt3__122__compressed_pair_elemIPPNS_16__hash_node_baseIPNS_11__hash_nodeINS_17__hash_value_typeINS_12basic_stringIcNS_11char_traitsIcEENS_9allocatorIcEEEES9_EEPvEEEELi0ELb0EE5__getB8ue170006Ev, symObjAddr: 0xF854, symBinAddr: 0x1000112AC, symSize: 0x14 }
  - { offsetInCU: 0x21A06, offset: 0x21A06, size: 0x8, addend: 0x0, symName: __ZNSt3__117__compressed_pairIfNS_21__unordered_map_equalINS_12basic_stringIcNS_11char_traitsIcEENS_9allocatorIcEEEENS_17__hash_value_typeIS7_S7_EENS_8equal_toIS7_EENS_4hashIS7_EELb1EEEE6secondB8ue170006Ev, symObjAddr: 0xF868, symBinAddr: 0x1000112C0, symSize: 0x24 }
  - { offsetInCU: 0x21A2C, offset: 0x21A2C, size: 0x8, addend: 0x0, symName: __ZNSt3__122__compressed_pair_elemINS_21__unordered_map_equalINS_12basic_stringIcNS_11char_traitsIcEENS_9allocatorIcEEEENS_17__hash_value_typeIS7_S7_EENS_8equal_toIS7_EENS_4hashIS7_EELb1EEELi1ELb1EE5__getB8ue170006Ev, symObjAddr: 0xF88C, symBinAddr: 0x1000112E4, symSize: 0x14 }
  - { offsetInCU: 0x21A52, offset: 0x21A52, size: 0x8, addend: 0x0, symName: __ZNKSt3__117__hash_value_typeINS_12basic_stringIcNS_11char_traitsIcEENS_9allocatorIcEEEES6_E11__get_valueB8ue170006Ev, symObjAddr: 0xF8A0, symBinAddr: 0x1000112F8, symSize: 0x14 }
  - { offsetInCU: 0x21A78, offset: 0x21A78, size: 0x8, addend: 0x0, symName: __ZNSt3__115__hash_iteratorIPNS_11__hash_nodeINS_17__hash_value_typeINS_12basic_stringIcNS_11char_traitsIcEENS_9allocatorIcEEEES8_EEPvEEEC2B8ue170006EPNS_16__hash_node_baseISC_EE, symObjAddr: 0xF8B4, symBinAddr: 0x10001130C, symSize: 0x20 }
  - { offsetInCU: 0x21AB1, offset: 0x21AB1, size: 0x8, addend: 0x0, symName: __ZNSt3__119__hash_map_iteratorINS_15__hash_iteratorIPNS_11__hash_nodeINS_17__hash_value_typeINS_12basic_stringIcNS_11char_traitsIcEENS_9allocatorIcEEEES9_EEPvEEEEEC2B8ue170006ESE_, symObjAddr: 0xF8D4, symBinAddr: 0x10001132C, symSize: 0x20 }
  - { offsetInCU: 0x21AEA, offset: 0x21AEA, size: 0x8, addend: 0x0, symName: __ZNSt3__114pointer_traitsIPNS_4pairIKNS_12basic_stringIcNS_11char_traitsIcEENS_9allocatorIcEEEES7_EEE10pointer_toB8ue170006ERS9_, symObjAddr: 0xF958, symBinAddr: 0x1000113B0, symSize: 0x14 }
  - { offsetInCU: 0x21B0D, offset: 0x21B0D, size: 0x8, addend: 0x0, symName: __ZNKSt3__115__hash_iteratorIPNS_11__hash_nodeINS_17__hash_value_typeINS_12basic_stringIcNS_11char_traitsIcEENS_9allocatorIcEEEES8_EEPvEEEptB8ue170006Ev, symObjAddr: 0xF96C, symBinAddr: 0x1000113C4, symSize: 0x30 }
  - { offsetInCU: 0x21B33, offset: 0x21B33, size: 0x8, addend: 0x0, symName: __ZNSt3__114pointer_traitsIPNS_17__hash_value_typeINS_12basic_stringIcNS_11char_traitsIcEENS_9allocatorIcEEEES7_EEE10pointer_toB8ue170006ERS8_, symObjAddr: 0xF99C, symBinAddr: 0x1000113F4, symSize: 0x14 }
  - { offsetInCU: 0x21B56, offset: 0x21B56, size: 0x8, addend: 0x0, symName: __ZNSt3__116allocator_traitsINS_9allocatorINS_11__hash_nodeINS_17__hash_value_typeINS_12basic_stringIcNS_11char_traitsIcEENS1_IcEEEES8_EEPvEEEEE8allocateB8ue170006ERSC_m, symObjAddr: 0xF9B0, symBinAddr: 0x100011408, symSize: 0x2C }
  - { offsetInCU: 0x21B89, offset: 0x21B89, size: 0x8, addend: 0x0, symName: __ZNSt3__126__hash_map_node_destructorINS_9allocatorINS_11__hash_nodeINS_17__hash_value_typeINS_12basic_stringIcNS_11char_traitsIcEENS1_IcEEEES8_EEPvEEEEEC1B8ue170006ERSC_, symObjAddr: 0xF9DC, symBinAddr: 0x100011434, symSize: 0x34 }
  - { offsetInCU: 0x21BC7, offset: 0x21BC7, size: 0x8, addend: 0x0, symName: __ZNSt3__110unique_ptrINS_11__hash_nodeINS_17__hash_value_typeINS_12basic_stringIcNS_11char_traitsIcEENS_9allocatorIcEEEES8_EEPvEENS_26__hash_map_node_destructorINS6_ISB_EEEEEC1B8ue170006ILb1EvEEPSB_NS_16__dependent_typeINS_27__unique_ptr_deleter_sfinaeISE_EEXT_EE20__good_rval_ref_typeE, symObjAddr: 0xFA10, symBinAddr: 0x100011468, symSize: 0x3C }
  - { offsetInCU: 0x21C18, offset: 0x21C18, size: 0x8, addend: 0x0, symName: __ZNSt3__116allocator_traitsINS_9allocatorINS_11__hash_nodeINS_17__hash_value_typeINS_12basic_stringIcNS_11char_traitsIcEENS1_IcEEEES8_EEPvEEEEE9constructB8ue170006IKS8_JRSF_EvEEvRSC_PT_DpOT0_, symObjAddr: 0xFA4C, symBinAddr: 0x1000114A4, symSize: 0x34 }
  - { offsetInCU: 0x21C6F, offset: 0x21C6F, size: 0x8, addend: 0x0, symName: __ZNKSt3__110unique_ptrINS_11__hash_nodeINS_17__hash_value_typeINS_12basic_stringIcNS_11char_traitsIcEENS_9allocatorIcEEEES8_EEPvEENS_26__hash_map_node_destructorINS6_ISB_EEEEEptB8ue170006Ev, symObjAddr: 0xFA80, symBinAddr: 0x1000114D8, symSize: 0x28 }
  - { offsetInCU: 0x21C95, offset: 0x21C95, size: 0x8, addend: 0x0, symName: __ZNSt3__110unique_ptrINS_11__hash_nodeINS_17__hash_value_typeINS_12basic_stringIcNS_11char_traitsIcEENS_9allocatorIcEEEES8_EEPvEENS_26__hash_map_node_destructorINS6_ISB_EEEEE11get_deleterB8ue170006Ev, symObjAddr: 0xFAA8, symBinAddr: 0x100011500, symSize: 0x24 }
  - { offsetInCU: 0x21CC0, offset: 0x21CC0, size: 0x8, addend: 0x0, symName: __ZNSt3__116allocator_traitsINS_9allocatorINS_11__hash_nodeINS_17__hash_value_typeINS_12basic_stringIcNS_11char_traitsIcEENS1_IcEEEES8_EEPvEEEEE9constructB8ue170006IS8_JEvEEvRSC_PT_DpOT0_, symObjAddr: 0xFACC, symBinAddr: 0x100011524, symSize: 0x2C }
  - { offsetInCU: 0x21D02, offset: 0x21D02, size: 0x8, addend: 0x0, symName: __ZNSt3__19allocatorINS_11__hash_nodeINS_17__hash_value_typeINS_12basic_stringIcNS_11char_traitsIcEENS0_IcEEEES7_EEPvEEE8allocateB8ue170006Em, symObjAddr: 0xFAF8, symBinAddr: 0x100011550, symSize: 0x84 }
  - { offsetInCU: 0x21D40, offset: 0x21D40, size: 0x8, addend: 0x0, symName: __ZNSt3__116allocator_traitsINS_9allocatorINS_11__hash_nodeINS_17__hash_value_typeINS_12basic_stringIcNS_11char_traitsIcEENS1_IcEEEES8_EEPvEEEEE8max_sizeB8ue170006ISC_vEEmRKSC_, symObjAddr: 0xFB7C, symBinAddr: 0x1000115D4, symSize: 0x24 }
  - { offsetInCU: 0x21D6E, offset: 0x21D6E, size: 0x8, addend: 0x0, symName: __ZNKSt3__19allocatorINS_11__hash_nodeINS_17__hash_value_typeINS_12basic_stringIcNS_11char_traitsIcEENS0_IcEEEES7_EEPvEEE8max_sizeB8ue170006Ev, symObjAddr: 0xFBA0, symBinAddr: 0x1000115F8, symSize: 0x14 }
  - { offsetInCU: 0x21D94, offset: 0x21D94, size: 0x8, addend: 0x0, symName: __ZNSt3__126__hash_map_node_destructorINS_9allocatorINS_11__hash_nodeINS_17__hash_value_typeINS_12basic_stringIcNS_11char_traitsIcEENS1_IcEEEES8_EEPvEEEEEC2B8ue170006ERSC_, symObjAddr: 0xFBB4, symBinAddr: 0x10001160C, symSize: 0x28 }
  - { offsetInCU: 0x21DCD, offset: 0x21DCD, size: 0x8, addend: 0x0, symName: __ZNSt3__110unique_ptrINS_11__hash_nodeINS_17__hash_value_typeINS_12basic_stringIcNS_11char_traitsIcEENS_9allocatorIcEEEES8_EEPvEENS_26__hash_map_node_destructorINS6_ISB_EEEEEC2B8ue170006ILb1EvEEPSB_NS_16__dependent_typeINS_27__unique_ptr_deleter_sfinaeISE_EEXT_EE20__good_rval_ref_typeE, symObjAddr: 0xFBDC, symBinAddr: 0x100011634, symSize: 0x5C }
  - { offsetInCU: 0x21E1E, offset: 0x21E1E, size: 0x8, addend: 0x0, symName: __ZNSt3__117__compressed_pairIPNS_11__hash_nodeINS_17__hash_value_typeINS_12basic_stringIcNS_11char_traitsIcEENS_9allocatorIcEEEES8_EEPvEENS_26__hash_map_node_destructorINS6_ISB_EEEEEC1B8ue170006IRSC_SF_EEOT_OT0_, symObjAddr: 0xFC38, symBinAddr: 0x100011690, symSize: 0x3C }
  - { offsetInCU: 0x21E76, offset: 0x21E76, size: 0x8, addend: 0x0, symName: __ZNSt3__117__compressed_pairIPNS_11__hash_nodeINS_17__hash_value_typeINS_12basic_stringIcNS_11char_traitsIcEENS_9allocatorIcEEEES8_EEPvEENS_26__hash_map_node_destructorINS6_ISB_EEEEEC2B8ue170006IRSC_SF_EEOT_OT0_, symObjAddr: 0xFC74, symBinAddr: 0x1000116CC, symSize: 0x48 }
  - { offsetInCU: 0x21ECE, offset: 0x21ECE, size: 0x8, addend: 0x0, symName: __ZNSt3__122__compressed_pair_elemIPNS_11__hash_nodeINS_17__hash_value_typeINS_12basic_stringIcNS_11char_traitsIcEENS_9allocatorIcEEEES8_EEPvEELi0ELb0EEC2B8ue170006IRSC_vEEOT_, symObjAddr: 0xFCBC, symBinAddr: 0x100011714, symSize: 0x24 }
  - { offsetInCU: 0x21F10, offset: 0x21F10, size: 0x8, addend: 0x0, symName: __ZNSt3__122__compressed_pair_elemINS_26__hash_map_node_destructorINS_9allocatorINS_11__hash_nodeINS_17__hash_value_typeINS_12basic_stringIcNS_11char_traitsIcEENS2_IcEEEES9_EEPvEEEEEELi1ELb0EEC2B8ue170006ISE_vEEOT_, symObjAddr: 0xFCE0, symBinAddr: 0x100011738, symSize: 0x24 }
  - { offsetInCU: 0x21F52, offset: 0x21F52, size: 0x8, addend: 0x0, symName: __ZNSt3__19allocatorINS_11__hash_nodeINS_17__hash_value_typeINS_12basic_stringIcNS_11char_traitsIcEENS0_IcEEEES7_EEPvEEE9constructB8ue170006IKS7_JRSD_EEEvPT_DpOT0_, symObjAddr: 0xFD04, symBinAddr: 0x10001175C, symSize: 0x30 }
  - { offsetInCU: 0x21FA8, offset: 0x21FA8, size: 0x8, addend: 0x0, symName: __ZNKSt3__117__compressed_pairIPNS_11__hash_nodeINS_17__hash_value_typeINS_12basic_stringIcNS_11char_traitsIcEENS_9allocatorIcEEEES8_EEPvEENS_26__hash_map_node_destructorINS6_ISB_EEEEE5firstB8ue170006Ev, symObjAddr: 0xFD34, symBinAddr: 0x10001178C, symSize: 0x24 }
  - { offsetInCU: 0x21FCE, offset: 0x21FCE, size: 0x8, addend: 0x0, symName: __ZNKSt3__122__compressed_pair_elemIPNS_11__hash_nodeINS_17__hash_value_typeINS_12basic_stringIcNS_11char_traitsIcEENS_9allocatorIcEEEES8_EEPvEELi0ELb0EE5__getB8ue170006Ev, symObjAddr: 0xFD58, symBinAddr: 0x1000117B0, symSize: 0x14 }
  - { offsetInCU: 0x21FF4, offset: 0x21FF4, size: 0x8, addend: 0x0, symName: __ZNSt3__117__compressed_pairIPNS_11__hash_nodeINS_17__hash_value_typeINS_12basic_stringIcNS_11char_traitsIcEENS_9allocatorIcEEEES8_EEPvEENS_26__hash_map_node_destructorINS6_ISB_EEEEE6secondB8ue170006Ev, symObjAddr: 0xFD6C, symBinAddr: 0x1000117C4, symSize: 0x28 }
  - { offsetInCU: 0x2201A, offset: 0x2201A, size: 0x8, addend: 0x0, symName: __ZNSt3__122__compressed_pair_elemINS_26__hash_map_node_destructorINS_9allocatorINS_11__hash_nodeINS_17__hash_value_typeINS_12basic_stringIcNS_11char_traitsIcEENS2_IcEEEES9_EEPvEEEEEELi1ELb0EE5__getB8ue170006Ev, symObjAddr: 0xFD94, symBinAddr: 0x1000117EC, symSize: 0x14 }
  - { offsetInCU: 0x22040, offset: 0x22040, size: 0x8, addend: 0x0, symName: __ZNSt3__19allocatorINS_11__hash_nodeINS_17__hash_value_typeINS_12basic_stringIcNS_11char_traitsIcEENS0_IcEEEES7_EEPvEEE9constructB8ue170006IS7_JEEEvPT_DpOT0_, symObjAddr: 0xFDA8, symBinAddr: 0x100011800, symSize: 0x28 }
  - { offsetInCU: 0x22082, offset: 0x22082, size: 0x8, addend: 0x0, symName: __ZNSt3__112basic_stringIcNS_11char_traitsIcEENS_9allocatorIcEEEC1B8ue170006Ev, symObjAddr: 0xFDD0, symBinAddr: 0x100011828, symSize: 0x2C }
  - { offsetInCU: 0x220AC, offset: 0x220AC, size: 0x8, addend: 0x0, symName: __ZNSt3__112basic_stringIcNS_11char_traitsIcEENS_9allocatorIcEEEC2B8ue170006Ev, symObjAddr: 0xFDFC, symBinAddr: 0x100011854, symSize: 0x3C }
  - { offsetInCU: 0x220D6, offset: 0x220D6, size: 0x8, addend: 0x0, symName: __ZNSt3__112basic_stringIcNS_11char_traitsIcEENS_9allocatorIcEEE14__default_initB8ue170006Ev, symObjAddr: 0xFE38, symBinAddr: 0x100011890, symSize: 0xB0 }
  - { offsetInCU: 0x22129, offset: 0x22129, size: 0x8, addend: 0x0, symName: __ZNSt3__117__compressed_pairINS_12basic_stringIcNS_11char_traitsIcEENS_9allocatorIcEEE5__repES5_E5firstB8ue170006Ev, symObjAddr: 0xFEE8, symBinAddr: 0x100011940, symSize: 0x24 }
  - { offsetInCU: 0x2214F, offset: 0x2214F, size: 0x8, addend: 0x0, symName: __ZNSt3__112basic_stringIcNS_11char_traitsIcEENS_9allocatorIcEEE11__recommendB8ue170006Em, symObjAddr: 0xFF0C, symBinAddr: 0x100011964, symSize: 0x9C }
  - { offsetInCU: 0x22182, offset: 0x22182, size: 0x8, addend: 0x0, symName: __ZNSt3__116allocator_traitsINS_9allocatorIcEEE8allocateB8ue170006ERS2_m, symObjAddr: 0xFFA8, symBinAddr: 0x100011A00, symSize: 0x2C }
  - { offsetInCU: 0x221B5, offset: 0x221B5, size: 0x8, addend: 0x0, symName: __ZNSt3__112basic_stringIcNS_11char_traitsIcEENS_9allocatorIcEEE7__allocB8ue170006Ev, symObjAddr: 0xFFD4, symBinAddr: 0x100011A2C, symSize: 0x24 }
  - { offsetInCU: 0x221DB, offset: 0x221DB, size: 0x8, addend: 0x0, symName: __ZNSt3__112basic_stringIcNS_11char_traitsIcEENS_9allocatorIcEEE16__begin_lifetimeB8ue170006EPcm, symObjAddr: 0xFFF8, symBinAddr: 0x100011A50, symSize: 0x14 }
  - { offsetInCU: 0x2220E, offset: 0x2220E, size: 0x8, addend: 0x0, symName: __ZNSt3__112basic_stringIcNS_11char_traitsIcEENS_9allocatorIcEEE18__set_long_pointerB8ue170006EPc, symObjAddr: 0x1000C, symBinAddr: 0x100011A64, symSize: 0x38 }
  - { offsetInCU: 0x22243, offset: 0x22243, size: 0x8, addend: 0x0, symName: __ZNSt3__112basic_stringIcNS_11char_traitsIcEENS_9allocatorIcEEE14__set_long_capB8ue170006Em, symObjAddr: 0x10044, symBinAddr: 0x100011A9C, symSize: 0x70 }
  - { offsetInCU: 0x22278, offset: 0x22278, size: 0x8, addend: 0x0, symName: __ZNSt3__112basic_stringIcNS_11char_traitsIcEENS_9allocatorIcEEE15__set_long_sizeB8ue170006Em, symObjAddr: 0x100B4, symBinAddr: 0x100011B0C, symSize: 0x38 }
  - { offsetInCU: 0x222AD, offset: 0x222AD, size: 0x8, addend: 0x0, symName: __ZNSt3__122__compressed_pair_elemINS_12basic_stringIcNS_11char_traitsIcEENS_9allocatorIcEEE5__repELi0ELb0EE5__getB8ue170006Ev, symObjAddr: 0x100EC, symBinAddr: 0x100011B44, symSize: 0x14 }
  - { offsetInCU: 0x222D3, offset: 0x222D3, size: 0x8, addend: 0x0, symName: __ZNSt3__112basic_stringIcNS_11char_traitsIcEENS_9allocatorIcEEE10__align_itB8ue170006ILm16EEEmm, symObjAddr: 0x10100, symBinAddr: 0x100011B58, symSize: 0x1C }
  - { offsetInCU: 0x22301, offset: 0x22301, size: 0x8, addend: 0x0, symName: __ZNSt3__19allocatorIcE8allocateB8ue170006Em, symObjAddr: 0x1011C, symBinAddr: 0x100011B74, symSize: 0x84 }
  - { offsetInCU: 0x2233F, offset: 0x2233F, size: 0x8, addend: 0x0, symName: __ZNSt3__116allocator_traitsINS_9allocatorIcEEE8max_sizeB8ue170006IS2_vEEmRKS2_, symObjAddr: 0x101A0, symBinAddr: 0x100011BF8, symSize: 0x24 }
  - { offsetInCU: 0x2236D, offset: 0x2236D, size: 0x8, addend: 0x0, symName: __ZNKSt3__19allocatorIcE8max_sizeB8ue170006Ev, symObjAddr: 0x101C4, symBinAddr: 0x100011C1C, symSize: 0x14 }
  - { offsetInCU: 0x22393, offset: 0x22393, size: 0x8, addend: 0x0, symName: __ZNSt3__117__compressed_pairINS_12basic_stringIcNS_11char_traitsIcEENS_9allocatorIcEEE5__repES5_E6secondB8ue170006Ev, symObjAddr: 0x101D8, symBinAddr: 0x100011C30, symSize: 0x24 }
  - { offsetInCU: 0x223B9, offset: 0x223B9, size: 0x8, addend: 0x0, symName: __ZNSt3__122__compressed_pair_elemINS_9allocatorIcEELi1ELb1EE5__getB8ue170006Ev, symObjAddr: 0x101FC, symBinAddr: 0x100011C54, symSize: 0x14 }
  - { offsetInCU: 0x223DF, offset: 0x223DF, size: 0x8, addend: 0x0, symName: __ZNKSt3__122__unordered_map_hasherINS_12basic_stringIcNS_11char_traitsIcEENS_9allocatorIcEEEENS_17__hash_value_typeIS6_S6_EENS_4hashIS6_EENS_8equal_toIS6_EELb1EEclB8ue170006ERKS8_, symObjAddr: 0x10210, symBinAddr: 0x100011C68, symSize: 0x3C }
  - { offsetInCU: 0x22414, offset: 0x22414, size: 0x8, addend: 0x0, symName: __ZNSt3__112__hash_tableINS_17__hash_value_typeINS_12basic_stringIcNS_11char_traitsIcEENS_9allocatorIcEEEES7_EENS_22__unordered_map_hasherIS7_S8_NS_4hashIS7_EENS_8equal_toIS7_EELb1EEENS_21__unordered_map_equalIS7_S8_SD_SB_Lb1EEENS5_IS8_EEE28__node_insert_unique_prepareB8ue170006EmRS8_, symObjAddr: 0x1024C, symBinAddr: 0x100011CA4, symSize: 0x290 }
  - { offsetInCU: 0x22496, offset: 0x22496, size: 0x8, addend: 0x0, symName: __ZNSt3__112__hash_tableINS_17__hash_value_typeINS_12basic_stringIcNS_11char_traitsIcEENS_9allocatorIcEEEES7_EENS_22__unordered_map_hasherIS7_S8_NS_4hashIS7_EENS_8equal_toIS7_EELb1EEENS_21__unordered_map_equalIS7_S8_SD_SB_Lb1EEENS5_IS8_EEE28__node_insert_unique_performB8ue170006EPNS_11__hash_nodeIS8_PvEE, symObjAddr: 0x104DC, symBinAddr: 0x100011F34, symSize: 0x154 }
  - { offsetInCU: 0x224FA, offset: 0x224FA, size: 0x8, addend: 0x0, symName: __ZNSt3__116__hash_node_baseIPNS_11__hash_nodeINS_17__hash_value_typeINS_12basic_stringIcNS_11char_traitsIcEENS_9allocatorIcEEEES8_EEPvEEE5__ptrB8ue170006Ev, symObjAddr: 0x10630, symBinAddr: 0x100012088, symSize: 0x24 }
  - { offsetInCU: 0x22520, offset: 0x22520, size: 0x8, addend: 0x0, symName: __ZNSt3__14pairINS_15__hash_iteratorIPNS_11__hash_nodeINS_17__hash_value_typeINS_12basic_stringIcNS_11char_traitsIcEENS_9allocatorIcEEEES9_EEPvEEEEbEC1B8ue170006ERKSE_RKb, symObjAddr: 0x10654, symBinAddr: 0x1000120AC, symSize: 0x3C }
  - { offsetInCU: 0x22566, offset: 0x22566, size: 0x8, addend: 0x0, symName: __ZNKSt3__121__unordered_map_equalINS_12basic_stringIcNS_11char_traitsIcEENS_9allocatorIcEEEENS_17__hash_value_typeIS6_S6_EENS_8equal_toIS6_EENS_4hashIS6_EELb1EEclB8ue170006ERKS8_SF_, symObjAddr: 0x10690, symBinAddr: 0x1000120E8, symSize: 0x54 }
  - { offsetInCU: 0x225AA, offset: 0x225AA, size: 0x8, addend: 0x0, symName: __ZNSt3__112__hash_tableINS_17__hash_value_typeINS_12basic_stringIcNS_11char_traitsIcEENS_9allocatorIcEEEES7_EENS_22__unordered_map_hasherIS7_S8_NS_4hashIS7_EENS_8equal_toIS7_EELb1EEENS_21__unordered_map_equalIS7_S8_SD_SB_Lb1EEENS5_IS8_EEE4sizeB8ue170006Ev, symObjAddr: 0x106E4, symBinAddr: 0x10001213C, symSize: 0x28 }
  - { offsetInCU: 0x225D0, offset: 0x225D0, size: 0x8, addend: 0x0, symName: __ZNSt3__112__hash_tableINS_17__hash_value_typeINS_12basic_stringIcNS_11char_traitsIcEENS_9allocatorIcEEEES7_EENS_22__unordered_map_hasherIS7_S8_NS_4hashIS7_EENS_8equal_toIS7_EELb1EEENS_21__unordered_map_equalIS7_S8_SD_SB_Lb1EEENS5_IS8_EEE15max_load_factorB8ue170006Ev, symObjAddr: 0x1070C, symBinAddr: 0x100012164, symSize: 0x28 }
  - { offsetInCU: 0x225F6, offset: 0x225F6, size: 0x8, addend: 0x0, symName: __ZNSt3__112__hash_tableINS_17__hash_value_typeINS_12basic_stringIcNS_11char_traitsIcEENS_9allocatorIcEEEES7_EENS_22__unordered_map_hasherIS7_S8_NS_4hashIS7_EENS_8equal_toIS7_EELb1EEENS_21__unordered_map_equalIS7_S8_SD_SB_Lb1EEENS5_IS8_EEE15__rehash_uniqueB8ue170006Em, symObjAddr: 0x10734, symBinAddr: 0x10001218C, symSize: 0x2C }
  - { offsetInCU: 0x2262B, offset: 0x2262B, size: 0x8, addend: 0x0, symName: __ZNSt3__117__compressed_pairImNS_22__unordered_map_hasherINS_12basic_stringIcNS_11char_traitsIcEENS_9allocatorIcEEEENS_17__hash_value_typeIS7_S7_EENS_4hashIS7_EENS_8equal_toIS7_EELb1EEEE5firstB8ue170006Ev, symObjAddr: 0x10760, symBinAddr: 0x1000121B8, symSize: 0x24 }
  - { offsetInCU: 0x22651, offset: 0x22651, size: 0x8, addend: 0x0, symName: __ZNSt3__117__compressed_pairIfNS_21__unordered_map_equalINS_12basic_stringIcNS_11char_traitsIcEENS_9allocatorIcEEEENS_17__hash_value_typeIS7_S7_EENS_8equal_toIS7_EENS_4hashIS7_EELb1EEEE5firstB8ue170006Ev, symObjAddr: 0x10784, symBinAddr: 0x1000121DC, symSize: 0x24 }
  - { offsetInCU: 0x22677, offset: 0x22677, size: 0x8, addend: 0x0, symName: __ZNSt3__112__hash_tableINS_17__hash_value_typeINS_12basic_stringIcNS_11char_traitsIcEENS_9allocatorIcEEEES7_EENS_22__unordered_map_hasherIS7_S8_NS_4hashIS7_EENS_8equal_toIS7_EELb1EEENS_21__unordered_map_equalIS7_S8_SD_SB_Lb1EEENS5_IS8_EEE8__rehashILb1EEEvm, symObjAddr: 0x107A8, symBinAddr: 0x100012200, symSize: 0x1A8 }
  - { offsetInCU: 0x226C7, offset: 0x226C7, size: 0x8, addend: 0x0, symName: __ZNSt3__112__hash_tableINS_17__hash_value_typeINS_12basic_stringIcNS_11char_traitsIcEENS_9allocatorIcEEEES7_EENS_22__unordered_map_hasherIS7_S8_NS_4hashIS7_EENS_8equal_toIS7_EELb1EEENS_21__unordered_map_equalIS7_S8_SD_SB_Lb1EEENS5_IS8_EEE11__do_rehashILb1EEEvm, symObjAddr: 0x10950, symBinAddr: 0x1000123A8, symSize: 0x288 }
  - { offsetInCU: 0x227AE, offset: 0x227AE, size: 0x8, addend: 0x0, symName: __ZNSt3__110unique_ptrIA_PNS_16__hash_node_baseIPNS_11__hash_nodeINS_17__hash_value_typeINS_12basic_stringIcNS_11char_traitsIcEENS_9allocatorIcEEEES9_EEPvEEEENS_25__bucket_list_deallocatorINS7_ISF_EEEEE11get_deleterB8ue170006Ev, symObjAddr: 0x10BD8, symBinAddr: 0x100012630, symSize: 0x24 }
  - { offsetInCU: 0x227D4, offset: 0x227D4, size: 0x8, addend: 0x0, symName: __ZNSt3__110unique_ptrIA_PNS_16__hash_node_baseIPNS_11__hash_nodeINS_17__hash_value_typeINS_12basic_stringIcNS_11char_traitsIcEENS_9allocatorIcEEEES9_EEPvEEEENS_25__bucket_list_deallocatorINS7_ISF_EEEEE5resetB8ue170006IPSF_EENS_9enable_ifIXsr28_CheckArrayPointerConversionIT_EE5valueEvE4typeESO_, symObjAddr: 0x10BFC, symBinAddr: 0x100012654, symSize: 0x78 }
  - { offsetInCU: 0x22821, offset: 0x22821, size: 0x8, addend: 0x0, symName: __ZNSt3__116allocator_traitsINS_9allocatorIPNS_16__hash_node_baseIPNS_11__hash_nodeINS_17__hash_value_typeINS_12basic_stringIcNS_11char_traitsIcEENS1_IcEEEES9_EEPvEEEEEEE8allocateB8ue170006ERSG_m, symObjAddr: 0x10C74, symBinAddr: 0x1000126CC, symSize: 0x2C }
  - { offsetInCU: 0x22854, offset: 0x22854, size: 0x8, addend: 0x0, symName: __ZNSt3__19allocatorIPNS_16__hash_node_baseIPNS_11__hash_nodeINS_17__hash_value_typeINS_12basic_stringIcNS_11char_traitsIcEENS0_IcEEEES8_EEPvEEEEE8allocateB8ue170006Em, symObjAddr: 0x10CA0, symBinAddr: 0x1000126F8, symSize: 0x84 }
  - { offsetInCU: 0x22892, offset: 0x22892, size: 0x8, addend: 0x0, symName: __ZNSt3__116allocator_traitsINS_9allocatorIPNS_16__hash_node_baseIPNS_11__hash_nodeINS_17__hash_value_typeINS_12basic_stringIcNS_11char_traitsIcEENS1_IcEEEES9_EEPvEEEEEEE8max_sizeB8ue170006ISG_vEEmRKSG_, symObjAddr: 0x10D24, symBinAddr: 0x10001277C, symSize: 0x24 }
  - { offsetInCU: 0x228C0, offset: 0x228C0, size: 0x8, addend: 0x0, symName: __ZNKSt3__19allocatorIPNS_16__hash_node_baseIPNS_11__hash_nodeINS_17__hash_value_typeINS_12basic_stringIcNS_11char_traitsIcEENS0_IcEEEES8_EEPvEEEEE8max_sizeB8ue170006Ev, symObjAddr: 0x10D48, symBinAddr: 0x1000127A0, symSize: 0x14 }
  - { offsetInCU: 0x228E6, offset: 0x228E6, size: 0x8, addend: 0x0, symName: __ZNSt3__14pairINS_15__hash_iteratorIPNS_11__hash_nodeINS_17__hash_value_typeINS_12basic_stringIcNS_11char_traitsIcEENS_9allocatorIcEEEES9_EEPvEEEEbEC2B8ue170006ERKSE_RKb, symObjAddr: 0x10D5C, symBinAddr: 0x1000127B4, symSize: 0x38 }
  - { offsetInCU: 0x2292C, offset: 0x2292C, size: 0x8, addend: 0x0, symName: __ZNSt3__14pairINS_19__hash_map_iteratorINS_15__hash_iteratorIPNS_11__hash_nodeINS_17__hash_value_typeINS_12basic_stringIcNS_11char_traitsIcEENS_9allocatorIcEEEESA_EEPvEEEEEEbEC2B8ue170006ISF_bEERKNS0_IT_T0_EE, symObjAddr: 0x10D94, symBinAddr: 0x1000127EC, symSize: 0x50 }
  - { offsetInCU: 0x22976, offset: 0x22976, size: 0x8, addend: 0x0, symName: __ZNSt3__117__compressed_pairIPNS_11__hash_nodeINS_17__hash_value_typeINS_12basic_stringIcNS_11char_traitsIcEENS_9allocatorIcEEEES8_EEPvEENS_26__hash_map_node_destructorINS6_ISB_EEEEE5firstB8ue170006Ev, symObjAddr: 0x10DE4, symBinAddr: 0x10001283C, symSize: 0x24 }
  - { offsetInCU: 0x2299C, offset: 0x2299C, size: 0x8, addend: 0x0, symName: __ZNSt3__122__compressed_pair_elemIPNS_11__hash_nodeINS_17__hash_value_typeINS_12basic_stringIcNS_11char_traitsIcEENS_9allocatorIcEEEES8_EEPvEELi0ELb0EE5__getB8ue170006Ev, symObjAddr: 0x10E08, symBinAddr: 0x100012860, symSize: 0x14 }
  - { offsetInCU: 0x229C2, offset: 0x229C2, size: 0x8, addend: 0x0, symName: __ZNSt3__110unique_ptrINS_11__hash_nodeINS_17__hash_value_typeINS_12basic_stringIcNS_11char_traitsIcEENS_9allocatorIcEEEES8_EEPvEENS_26__hash_map_node_destructorINS6_ISB_EEEEED2B8ue170006Ev, symObjAddr: 0x10E1C, symBinAddr: 0x100012874, symSize: 0x30 }
  - { offsetInCU: 0x229EC, offset: 0x229EC, size: 0x8, addend: 0x0, symName: __ZNSt3__110unique_ptrINS_11__hash_nodeINS_17__hash_value_typeINS_12basic_stringIcNS_11char_traitsIcEENS_9allocatorIcEEEES8_EEPvEENS_26__hash_map_node_destructorINS6_ISB_EEEEE5resetB8ue170006EPSB_, symObjAddr: 0x10E4C, symBinAddr: 0x1000128A4, symSize: 0x78 }
  - { offsetInCU: 0x22A30, offset: 0x22A30, size: 0x8, addend: 0x0, symName: __ZNSt3__126__hash_map_node_destructorINS_9allocatorINS_11__hash_nodeINS_17__hash_value_typeINS_12basic_stringIcNS_11char_traitsIcEENS1_IcEEEES8_EEPvEEEEEclB8ue170006EPSB_, symObjAddr: 0x10EC4, symBinAddr: 0x10001291C, symSize: 0xE4 }
  - { offsetInCU: 0x22A65, offset: 0x22A65, size: 0x8, addend: 0x0, symName: __ZNSt3__116allocator_traitsINS_9allocatorINS_11__hash_nodeINS_17__hash_value_typeINS_12basic_stringIcNS_11char_traitsIcEENS1_IcEEEES8_EEPvEEEEE7destroyB8ue170006IS8_vvEEvRSC_PT_, symObjAddr: 0x10FA8, symBinAddr: 0x100012A00, symSize: 0x28 }
  - { offsetInCU: 0x22A9F, offset: 0x22A9F, size: 0x8, addend: 0x0, symName: __ZNSt3__116allocator_traitsINS_9allocatorINS_11__hash_nodeINS_17__hash_value_typeINS_12basic_stringIcNS_11char_traitsIcEENS1_IcEEEES8_EEPvEEEEE7destroyB8ue170006IKS8_vvEEvRSC_PT_, symObjAddr: 0x10FD0, symBinAddr: 0x100012A28, symSize: 0x28 }
  - { offsetInCU: 0x22AD9, offset: 0x22AD9, size: 0x8, addend: 0x0, symName: __ZNSt3__112basic_stringIcNS_11char_traitsIcEENS_9allocatorIcEEEC2B8ue170006ILi0EEEPKc, symObjAddr: 0x10FF8, symBinAddr: 0x100012A50, symSize: 0x58 }
...
